	.file	"flecs.c"
	.text
	.type	ecs_vasprintf, @function
ecs_vasprintf:
.LFB6:
	.cfi_startproc
	endbr64
	pushq	%rbp
	.cfi_def_cfa_offset 16
	.cfi_offset 6, -16
	movq	%rsp, %rbp
	.cfi_def_cfa_register 6
	subq	$64, %rsp
	movq	%rdi, -56(%rbp)
	movq	%rsi, -64(%rbp)
	movq	%fs:40, %rax
	movq	%rax, -8(%rbp)
	xorl	%eax, %eax
	movl	$0, -44(%rbp)
	movq	$0, -40(%rbp)
	leaq	-32(%rbp), %rcx
	movq	-64(%rbp), %rsi
	movq	(%rsi), %rax
	movq	8(%rsi), %rdx
	movq	%rax, (%rcx)
	movq	%rdx, 8(%rcx)
	movq	16(%rsi), %rax
	movq	%rax, 16(%rcx)
	leaq	-32(%rbp), %rcx
	movq	-56(%rbp), %rdx
	movq	-40(%rbp), %rax
	movl	$0, %esi
	movq	%rax, %rdi
	call	vsnprintf@PLT
	movl	%eax, -44(%rbp)
	cmpl	$0, -44(%rbp)
	jns	.L2
	movl	$0, %eax
	jmp	.L5
.L2:
	movq	16+ecs_os_api(%rip), %rax
	movl	-44(%rbp), %edx
	addl	$1, %edx
	movl	%edx, %edi
	call	*%rax
	movq	%rax, -40(%rbp)
	cmpq	$0, -40(%rbp)
	jne	.L4
	movl	$0, %eax
	jmp	.L5
.L4:
	movq	-64(%rbp), %rdx
	movq	-56(%rbp), %rcx
	movq	-40(%rbp), %rax
	movq	%rcx, %rsi
	movq	%rax, %rdi
	call	vsprintf@PLT
	movq	-40(%rbp), %rax
.L5:
	movq	-8(%rbp), %rdi
	xorq	%fs:40, %rdi
	je	.L6
	call	__stack_chk_fail@PLT
.L6:
	leave
	.cfi_def_cfa 7, 8
	ret
	.cfi_endproc
.LFE6:
	.size	ecs_vasprintf, .-ecs_vasprintf
	.section	.rodata
.LC0:
	.string	"\033[0;49m"
.LC1:
	.string	"\033[0;36m"
.LC2:
	.string	"\033[0;32m"
.LC3:
	.string	"]"
.LC4:
	.string	"green]"
.LC5:
	.string	"red]"
.LC6:
	.string	"\033[0;31m"
.LC7:
	.string	"blue]"
.LC8:
	.string	"\033[0;34m"
.LC9:
	.string	"magenta]"
.LC10:
	.string	"\033[0;35m"
.LC11:
	.string	"cyan]"
.LC12:
	.string	"yellow]"
.LC13:
	.string	"\033[0;33m"
.LC14:
	.string	"grey]"
.LC15:
	.string	"\033[0;37m"
.LC16:
	.string	"white]"
.LC17:
	.string	"bold]"
.LC18:
	.string	"\033[1;49m"
.LC19:
	.string	"normal]"
.LC20:
	.string	"reset]"
	.text
	.type	ecs_colorize, @function
ecs_colorize:
.LFB7:
	.cfi_startproc
	endbr64
	pushq	%rbp
	.cfi_def_cfa_offset 16
	.cfi_offset 6, -16
	movq	%rsp, %rbp
	.cfi_def_cfa_register 6
	subq	$1152, %rsp
	movq	%rdi, -1144(%rbp)
	movl	%esi, %eax
	movb	%al, -1148(%rbp)
	movq	%fs:40, %rax
	movq	%rax, -8(%rbp)
	xorl	%eax, %eax
	leaq	-1104(%rbp), %rdx
	movl	$0, %eax
	movl	$136, %ecx
	movq	%rdx, %rdi
	rep stosq
	movb	$0, -1120(%rbp)
	movb	$0, -1119(%rbp)
	movb	$0, -1118(%rbp)
	movb	$0, -1117(%rbp)
	movb	$0, -1116(%rbp)
	movb	$1, -1115(%rbp)
	movb	$0, -1114(%rbp)
	movq	-1144(%rbp), %rax
	movq	%rax, -1112(%rbp)
	jmp	.L8
.L46:
	movb	$0, -1114(%rbp)
	movzbl	-1116(%rbp), %eax
	xorl	$1, %eax
	testb	%al, %al
	je	.L9
	cmpb	$0, -1119(%rbp)
	je	.L10
	call	__ctype_b_loc@PLT
	movq	(%rax), %rax
	movsbq	-1121(%rbp), %rdx
	addq	%rdx, %rdx
	addq	%rdx, %rax
	movzwl	(%rax), %eax
	movzwl	%ax, %eax
	andl	$2048, %eax
	testl	%eax, %eax
	jne	.L10
	call	__ctype_b_loc@PLT
	movq	(%rax), %rax
	movsbq	-1121(%rbp), %rdx
	addq	%rdx, %rdx
	addq	%rdx, %rax
	movzwl	(%rax), %eax
	movzwl	%ax, %eax
	andl	$1024, %eax
	testl	%eax, %eax
	jne	.L10
	cmpb	$46, -1121(%rbp)
	je	.L10
	cmpb	$37, -1121(%rbp)
	je	.L10
	cmpb	$0, -1148(%rbp)
	je	.L11
	leaq	-1104(%rbp), %rax
	leaq	.LC0(%rip), %rsi
	movq	%rax, %rdi
	call	ecs_strbuf_appendstr
.L11:
	movb	$0, -1119(%rbp)
.L10:
	cmpb	$0, -1118(%rbp)
	je	.L12
	movzbl	-1118(%rbp), %eax
	cmpb	-1121(%rbp), %al
	jne	.L12
	cmpb	$92, -1120(%rbp)
	je	.L12
	movb	$0, -1118(%rbp)
	jmp	.L13
.L12:
	cmpb	$39, -1121(%rbp)
	je	.L14
	cmpb	$34, -1121(%rbp)
	jne	.L13
.L14:
	cmpb	$0, -1118(%rbp)
	jne	.L13
	call	__ctype_b_loc@PLT
	movq	(%rax), %rax
	movsbq	-1120(%rbp), %rdx
	addq	%rdx, %rdx
	addq	%rdx, %rax
	movzwl	(%rax), %eax
	movzwl	%ax, %eax
	andl	$1024, %eax
	testl	%eax, %eax
	jne	.L13
	cmpb	$92, -1120(%rbp)
	je	.L13
	cmpb	$0, -1148(%rbp)
	je	.L15
	leaq	-1104(%rbp), %rax
	leaq	.LC1(%rip), %rsi
	movq	%rax, %rdi
	call	ecs_strbuf_appendstr
.L15:
	movzbl	-1121(%rbp), %eax
	movb	%al, -1118(%rbp)
.L13:
	call	__ctype_b_loc@PLT
	movq	(%rax), %rax
	movsbq	-1121(%rbp), %rdx
	addq	%rdx, %rdx
	addq	%rdx, %rax
	movzwl	(%rax), %eax
	movzwl	%ax, %eax
	andl	$2048, %eax
	testl	%eax, %eax
	jne	.L16
	cmpb	$37, -1121(%rbp)
	jne	.L17
	call	__ctype_b_loc@PLT
	movq	(%rax), %rax
	movsbq	-1120(%rbp), %rdx
	addq	%rdx, %rdx
	addq	%rdx, %rax
	movzwl	(%rax), %eax
	movzwl	%ax, %eax
	andl	$2048, %eax
	testl	%eax, %eax
	jne	.L16
.L17:
	cmpb	$45, -1121(%rbp)
	jne	.L18
	call	__ctype_b_loc@PLT
	movq	(%rax), %rax
	movq	-1112(%rbp), %rdx
	addq	$1, %rdx
	movzbl	(%rdx), %edx
	movsbq	%dl, %rdx
	addq	%rdx, %rdx
	addq	%rdx, %rax
	movzwl	(%rax), %eax
	movzwl	%ax, %eax
	andl	$2048, %eax
	testl	%eax, %eax
	je	.L18
.L16:
	movzbl	-1119(%rbp), %eax
	xorl	$1, %eax
	testb	%al, %al
	je	.L18
	cmpb	$0, -1118(%rbp)
	jne	.L18
	movzbl	-1117(%rbp), %eax
	xorl	$1, %eax
	testb	%al, %al
	je	.L18
	call	__ctype_b_loc@PLT
	movq	(%rax), %rax
	movsbq	-1120(%rbp), %rdx
	addq	%rdx, %rdx
	addq	%rdx, %rax
	movzwl	(%rax), %eax
	movzwl	%ax, %eax
	andl	$1024, %eax
	testl	%eax, %eax
	jne	.L18
	call	__ctype_b_loc@PLT
	movq	(%rax), %rax
	movsbq	-1120(%rbp), %rdx
	addq	%rdx, %rdx
	addq	%rdx, %rax
	movzwl	(%rax), %eax
	movzwl	%ax, %eax
	andl	$2048, %eax
	testl	%eax, %eax
	jne	.L18
	cmpb	$95, -1120(%rbp)
	je	.L18
	cmpb	$46, -1120(%rbp)
	je	.L18
	cmpb	$0, -1148(%rbp)
	je	.L19
	leaq	-1104(%rbp), %rax
	leaq	.LC2(%rip), %rsi
	movq	%rax, %rdi
	call	ecs_strbuf_appendstr
.L19:
	movb	$1, -1119(%rbp)
.L18:
	cmpb	$0, -1117(%rbp)
	je	.L20
	call	__ctype_b_loc@PLT
	movq	(%rax), %rax
	movsbq	-1121(%rbp), %rdx
	addq	%rdx, %rdx
	addq	%rdx, %rax
	movzwl	(%rax), %eax
	movzwl	%ax, %eax
	andl	$1024, %eax
	testl	%eax, %eax
	jne	.L20
	call	__ctype_b_loc@PLT
	movq	(%rax), %rax
	movsbq	-1121(%rbp), %rdx
	addq	%rdx, %rdx
	addq	%rdx, %rax
	movzwl	(%rax), %eax
	movzwl	%ax, %eax
	andl	$2048, %eax
	testl	%eax, %eax
	jne	.L20
	cmpb	$95, -1121(%rbp)
	je	.L20
	cmpb	$0, -1148(%rbp)
	je	.L21
	leaq	-1104(%rbp), %rax
	leaq	.LC0(%rip), %rsi
	movq	%rax, %rdi
	call	ecs_strbuf_appendstr
.L21:
	movb	$0, -1117(%rbp)
.L20:
	cmpb	$0, -1118(%rbp)
	jne	.L9
	movzbl	-1117(%rbp), %eax
	xorl	$1, %eax
	testb	%al, %al
	je	.L9
	cmpb	$36, -1121(%rbp)
	jne	.L9
	call	__ctype_b_loc@PLT
	movq	(%rax), %rax
	movq	-1112(%rbp), %rdx
	addq	$1, %rdx
	movzbl	(%rdx), %edx
	movsbq	%dl, %rdx
	addq	%rdx, %rdx
	addq	%rdx, %rax
	movzwl	(%rax), %eax
	movzwl	%ax, %eax
	andl	$1024, %eax
	testl	%eax, %eax
	je	.L9
	cmpb	$0, -1148(%rbp)
	je	.L22
	leaq	-1104(%rbp), %rax
	leaq	.LC1(%rip), %rsi
	movq	%rax, %rdi
	call	ecs_strbuf_appendstr
.L22:
	movb	$1, -1117(%rbp)
.L9:
	movzbl	-1117(%rbp), %eax
	xorl	$1, %eax
	testb	%al, %al
	je	.L23
	cmpb	$0, -1118(%rbp)
	jne	.L23
	movzbl	-1119(%rbp), %eax
	xorl	$1, %eax
	testb	%al, %al
	je	.L23
	cmpb	$35, -1121(%rbp)
	jne	.L23
	movq	-1112(%rbp), %rax
	addq	$1, %rax
	movzbl	(%rax), %eax
	cmpb	$91, %al
	jne	.L23
	movb	$1, -1113(%rbp)
	movb	$1, -1116(%rbp)
	movq	-1112(%rbp), %rax
	addq	$2, %rax
	movzbl	(%rax), %edx
	movzbl	.LC3(%rip), %eax
	movzbl	%dl, %edx
	movzbl	%al, %eax
	subl	%eax, %edx
	movl	%edx, %eax
	testl	%eax, %eax
	jne	.L24
	movb	$0, -1115(%rbp)
	jmp	.L25
.L24:
	movq	-1112(%rbp), %rax
	addq	$2, %rax
	movl	$6, %edx
	leaq	.LC4(%rip), %rsi
	movq	%rax, %rdi
	call	strncmp@PLT
	testl	%eax, %eax
	jne	.L26
	cmpb	$0, -1148(%rbp)
	je	.L25
	leaq	-1104(%rbp), %rax
	leaq	.LC2(%rip), %rsi
	movq	%rax, %rdi
	call	ecs_strbuf_appendstr
	jmp	.L25
.L26:
	movq	-1112(%rbp), %rax
	addq	$2, %rax
	movl	$4, %edx
	leaq	.LC5(%rip), %rsi
	movq	%rax, %rdi
	call	strncmp@PLT
	testl	%eax, %eax
	jne	.L27
	cmpb	$0, -1148(%rbp)
	je	.L25
	leaq	-1104(%rbp), %rax
	leaq	.LC6(%rip), %rsi
	movq	%rax, %rdi
	call	ecs_strbuf_appendstr
	jmp	.L25
.L27:
	movq	-1112(%rbp), %rax
	addq	$2, %rax
	movl	$4, %edx
	leaq	.LC7(%rip), %rsi
	movq	%rax, %rdi
	call	strncmp@PLT
	testl	%eax, %eax
	jne	.L28
	cmpb	$0, -1148(%rbp)
	je	.L25
	leaq	-1104(%rbp), %rax
	leaq	.LC8(%rip), %rsi
	movq	%rax, %rdi
	call	ecs_strbuf_appendstr
	jmp	.L25
.L28:
	movq	-1112(%rbp), %rax
	addq	$2, %rax
	movl	$8, %edx
	leaq	.LC9(%rip), %rsi
	movq	%rax, %rdi
	call	strncmp@PLT
	testl	%eax, %eax
	jne	.L29
	cmpb	$0, -1148(%rbp)
	je	.L25
	leaq	-1104(%rbp), %rax
	leaq	.LC10(%rip), %rsi
	movq	%rax, %rdi
	call	ecs_strbuf_appendstr
	jmp	.L25
.L29:
	movq	-1112(%rbp), %rax
	addq	$2, %rax
	movl	$5, %edx
	leaq	.LC11(%rip), %rsi
	movq	%rax, %rdi
	call	strncmp@PLT
	testl	%eax, %eax
	jne	.L30
	cmpb	$0, -1148(%rbp)
	je	.L25
	leaq	-1104(%rbp), %rax
	leaq	.LC1(%rip), %rsi
	movq	%rax, %rdi
	call	ecs_strbuf_appendstr
	jmp	.L25
.L30:
	movq	-1112(%rbp), %rax
	addq	$2, %rax
	movl	$7, %edx
	leaq	.LC12(%rip), %rsi
	movq	%rax, %rdi
	call	strncmp@PLT
	testl	%eax, %eax
	jne	.L31
	cmpb	$0, -1148(%rbp)
	je	.L25
	leaq	-1104(%rbp), %rax
	leaq	.LC13(%rip), %rsi
	movq	%rax, %rdi
	call	ecs_strbuf_appendstr
	jmp	.L25
.L31:
	movq	-1112(%rbp), %rax
	addq	$2, %rax
	movl	$5, %edx
	leaq	.LC14(%rip), %rsi
	movq	%rax, %rdi
	call	strncmp@PLT
	testl	%eax, %eax
	jne	.L32
	cmpb	$0, -1148(%rbp)
	je	.L25
	leaq	-1104(%rbp), %rax
	leaq	.LC15(%rip), %rsi
	movq	%rax, %rdi
	call	ecs_strbuf_appendstr
	jmp	.L25
.L32:
	movq	-1112(%rbp), %rax
	addq	$2, %rax
	movl	$6, %edx
	leaq	.LC16(%rip), %rsi
	movq	%rax, %rdi
	call	strncmp@PLT
	testl	%eax, %eax
	jne	.L33
	cmpb	$0, -1148(%rbp)
	je	.L25
	leaq	-1104(%rbp), %rax
	leaq	.LC0(%rip), %rsi
	movq	%rax, %rdi
	call	ecs_strbuf_appendstr
	jmp	.L25
.L33:
	movq	-1112(%rbp), %rax
	addq	$2, %rax
	movl	$5, %edx
	leaq	.LC17(%rip), %rsi
	movq	%rax, %rdi
	call	strncmp@PLT
	testl	%eax, %eax
	jne	.L34
	cmpb	$0, -1148(%rbp)
	je	.L25
	leaq	-1104(%rbp), %rax
	leaq	.LC18(%rip), %rsi
	movq	%rax, %rdi
	call	ecs_strbuf_appendstr
	jmp	.L25
.L34:
	movq	-1112(%rbp), %rax
	addq	$2, %rax
	movl	$7, %edx
	leaq	.LC19(%rip), %rsi
	movq	%rax, %rdi
	call	strncmp@PLT
	testl	%eax, %eax
	jne	.L35
	cmpb	$0, -1148(%rbp)
	je	.L25
	leaq	-1104(%rbp), %rax
	leaq	.LC0(%rip), %rsi
	movq	%rax, %rdi
	call	ecs_strbuf_appendstr
	jmp	.L25
.L35:
	movq	-1112(%rbp), %rax
	addq	$2, %rax
	movl	$6, %edx
	leaq	.LC20(%rip), %rsi
	movq	%rax, %rdi
	call	strncmp@PLT
	testl	%eax, %eax
	jne	.L36
	movb	$0, -1116(%rbp)
	cmpb	$0, -1148(%rbp)
	je	.L25
	leaq	-1104(%rbp), %rax
	leaq	.LC0(%rip), %rsi
	movq	%rax, %rdi
	call	ecs_strbuf_appendstr
	jmp	.L25
.L36:
	movb	$0, -1113(%rbp)
	movb	$0, -1116(%rbp)
.L25:
	cmpb	$0, -1113(%rbp)
	je	.L37
	addq	$2, -1112(%rbp)
	jmp	.L38
.L39:
	addq	$1, -1112(%rbp)
.L38:
	movq	-1112(%rbp), %rax
	movzbl	(%rax), %eax
	movb	%al, -1121(%rbp)
	cmpb	$93, -1121(%rbp)
	jne	.L39
	movb	$1, -1114(%rbp)
.L37:
	movzbl	-1115(%rbp), %eax
	xorl	$1, %eax
	testb	%al, %al
	je	.L23
	movb	$1, -1116(%rbp)
.L23:
	cmpb	$10, -1121(%rbp)
	jne	.L40
	cmpb	$0, -1119(%rbp)
	jne	.L41
	cmpb	$0, -1118(%rbp)
	jne	.L41
	cmpb	$0, -1117(%rbp)
	jne	.L41
	cmpb	$0, -1116(%rbp)
	je	.L40
.L41:
	cmpb	$0, -1148(%rbp)
	je	.L42
	leaq	-1104(%rbp), %rax
	leaq	.LC0(%rip), %rsi
	movq	%rax, %rdi
	call	ecs_strbuf_appendstr
.L42:
	movb	$0, -1116(%rbp)
	movb	$0, -1119(%rbp)
	movb	$0, -1118(%rbp)
	movb	$0, -1117(%rbp)
.L40:
	movzbl	-1114(%rbp), %eax
	xorl	$1, %eax
	testb	%al, %al
	je	.L43
	movq	-1112(%rbp), %rcx
	leaq	-1104(%rbp), %rax
	movl	$1, %edx
	movq	%rcx, %rsi
	movq	%rax, %rdi
	call	ecs_strbuf_appendstrn
.L43:
	movzbl	-1116(%rbp), %eax
	xorl	$1, %eax
	testb	%al, %al
	je	.L44
	cmpb	$39, -1121(%rbp)
	je	.L45
	cmpb	$34, -1121(%rbp)
	jne	.L44
.L45:
	cmpb	$0, -1118(%rbp)
	jne	.L44
	cmpb	$0, -1148(%rbp)
	je	.L44
	leaq	-1104(%rbp), %rax
	leaq	.LC0(%rip), %rsi
	movq	%rax, %rdi
	call	ecs_strbuf_appendstr
.L44:
	movzbl	-1121(%rbp), %eax
	movb	%al, -1120(%rbp)
	addq	$1, -1112(%rbp)
.L8:
	movq	-1112(%rbp), %rax
	movzbl	(%rax), %eax
	movb	%al, -1121(%rbp)
	cmpb	$0, -1121(%rbp)
	jne	.L46
	cmpb	$0, -1119(%rbp)
	jne	.L47
	cmpb	$0, -1118(%rbp)
	jne	.L47
	cmpb	$0, -1117(%rbp)
	jne	.L47
	cmpb	$0, -1116(%rbp)
	je	.L48
.L47:
	cmpb	$0, -1148(%rbp)
	je	.L48
	leaq	-1104(%rbp), %rax
	leaq	.LC0(%rip), %rsi
	movq	%rax, %rdi
	call	ecs_strbuf_appendstr
.L48:
	leaq	-1104(%rbp), %rax
	movq	%rax, %rdi
	call	ecs_strbuf_get
	movq	-8(%rbp), %rcx
	xorq	%fs:40, %rcx
	je	.L50
	call	__stack_chk_fail@PLT
.L50:
	leave
	.cfi_def_cfa 7, 8
	ret
	.cfi_endproc
.LFE7:
	.size	ecs_colorize, .-ecs_colorize
	.local	trace_indent
	.comm	trace_indent,4,4
	.local	trace_level
	.comm	trace_level,4,4
	.data
	.type	trace_color, @object
	.size	trace_color, 1
trace_color:
	.byte	1
	.section	.rodata
.LC21:
	.string	"%sinfo%s: %s%s%s%s:%s%d%s: %s"
.LC22:
	.string	"%swarn%s: %s%s%s%s:%s%d%s: %s"
.LC23:
	.string	"%serr%s:  %s%s%s%s:%s%d%s: %s"
	.align 8
.LC24:
	.string	"%sfatal%s:  %s%s%s%s:%s%d%s: %s"
.LC25:
	.string	"info: %s%s:%d: %s"
.LC26:
	.string	"warn: %s%s:%d: %s"
.LC27:
	.string	"err:  %s%s:%d: %s"
.LC28:
	.string	"fatal:  %s%s:%d: %s"
	.text
	.type	ecs_log_print, @function
ecs_log_print:
.LFB8:
	.cfi_startproc
	endbr64
	pushq	%rbp
	.cfi_def_cfa_offset 16
	.cfi_offset 6, -16
	movq	%rsp, %rbp
	.cfi_def_cfa_register 6
	subq	$368, %rsp
	movl	%edi, -340(%rbp)
	movq	%rsi, -352(%rbp)
	movl	%edx, -344(%rbp)
	movq	%rcx, -360(%rbp)
	movq	%r8, -368(%rbp)
	movq	%fs:40, %rax
	movq	%rax, -8(%rbp)
	xorl	%eax, %eax
	movl	trace_level(%rip), %eax
	cmpl	%eax, -340(%rbp)
	jg	.L68
	movq	-352(%rbp), %rdx
	leaq	-272(%rbp), %rax
	movq	%rdx, %rsi
	movq	%rax, %rdi
	call	strcpy@PLT
	leaq	-272(%rbp), %rax
	movq	%rax, -352(%rbp)
	movq	-352(%rbp), %rax
	movl	$47, %esi
	movq	%rax, %rdi
	call	strrchr@PLT
	movq	%rax, -328(%rbp)
	cmpq	$0, -328(%rbp)
	jne	.L54
	movq	-352(%rbp), %rax
	movl	$92, %esi
	movq	%rax, %rdi
	call	strrchr@PLT
	movq	%rax, -328(%rbp)
.L54:
	cmpq	$0, -328(%rbp)
	je	.L55
	movq	-328(%rbp), %rax
	addq	$1, %rax
	movq	%rax, -352(%rbp)
	jmp	.L56
.L55:
	leaq	-272(%rbp), %rax
	movq	%rax, -352(%rbp)
.L56:
	movl	$0, -332(%rbp)
	jmp	.L57
.L58:
	movl	-332(%rbp), %eax
	addl	%eax, %eax
	cltq
	movb	$124, -304(%rbp,%rax)
	movl	-332(%rbp), %eax
	addl	%eax, %eax
	addl	$1, %eax
	cltq
	movb	$32, -304(%rbp,%rax)
	addl	$1, -332(%rbp)
.L57:
	movl	trace_indent(%rip), %eax
	cmpl	%eax, -332(%rbp)
	jl	.L58
	movl	-332(%rbp), %eax
	addl	%eax, %eax
	cltq
	movb	$0, -304(%rbp,%rax)
	movq	-368(%rbp), %rdx
	movq	-360(%rbp), %rax
	movq	%rdx, %rsi
	movq	%rax, %rdi
	call	ecs_vasprintf
	movq	%rax, -320(%rbp)
	movzbl	trace_color(%rip), %eax
	movzbl	%al, %edx
	movq	-320(%rbp), %rax
	movl	%edx, %esi
	movq	%rax, %rdi
	call	ecs_colorize
	movq	%rax, -312(%rbp)
	movzbl	trace_color(%rip), %eax
	testb	%al, %al
	je	.L59
	cmpl	$0, -340(%rbp)
	js	.L60
	leaq	-304(%rbp), %rdx
	subq	$8, %rsp
	pushq	-312(%rbp)
	leaq	.LC0(%rip), %rax
	pushq	%rax
	movl	-344(%rbp), %eax
	pushq	%rax
	leaq	.LC2(%rip), %rax
	pushq	%rax
	pushq	-352(%rbp)
	leaq	.LC0(%rip), %r9
	movq	%rdx, %r8
	leaq	.LC15(%rip), %rcx
	leaq	.LC0(%rip), %rdx
	leaq	.LC10(%rip), %rsi
	leaq	.LC21(%rip), %rdi
	movl	$0, %eax
	call	ecs_os_log
	addq	$48, %rsp
	jmp	.L61
.L60:
	cmpl	$-2, -340(%rbp)
	jne	.L62
	leaq	-304(%rbp), %rdx
	subq	$8, %rsp
	pushq	-312(%rbp)
	leaq	.LC0(%rip), %rax
	pushq	%rax
	movl	-344(%rbp), %eax
	pushq	%rax
	leaq	.LC2(%rip), %rax
	pushq	%rax
	pushq	-352(%rbp)
	leaq	.LC0(%rip), %r9
	movq	%rdx, %r8
	leaq	.LC15(%rip), %rcx
	leaq	.LC0(%rip), %rdx
	leaq	.LC13(%rip), %rsi
	leaq	.LC22(%rip), %rdi
	movl	$0, %eax
	call	ecs_os_warn
	addq	$48, %rsp
	jmp	.L61
.L62:
	cmpl	$-3, -340(%rbp)
	jne	.L63
	leaq	-304(%rbp), %rdx
	subq	$8, %rsp
	pushq	-312(%rbp)
	leaq	.LC0(%rip), %rax
	pushq	%rax
	movl	-344(%rbp), %eax
	pushq	%rax
	leaq	.LC2(%rip), %rax
	pushq	%rax
	pushq	-352(%rbp)
	leaq	.LC0(%rip), %r9
	movq	%rdx, %r8
	leaq	.LC15(%rip), %rcx
	leaq	.LC0(%rip), %rdx
	leaq	.LC6(%rip), %rsi
	leaq	.LC23(%rip), %rdi
	movl	$0, %eax
	call	ecs_os_err
	addq	$48, %rsp
	jmp	.L61
.L63:
	cmpl	$-4, -340(%rbp)
	jne	.L61
	leaq	-304(%rbp), %rdx
	subq	$8, %rsp
	pushq	-312(%rbp)
	leaq	.LC0(%rip), %rax
	pushq	%rax
	movl	-344(%rbp), %eax
	pushq	%rax
	leaq	.LC2(%rip), %rax
	pushq	%rax
	pushq	-352(%rbp)
	leaq	.LC0(%rip), %r9
	movq	%rdx, %r8
	leaq	.LC15(%rip), %rcx
	leaq	.LC0(%rip), %rdx
	leaq	.LC6(%rip), %rsi
	leaq	.LC24(%rip), %rdi
	movl	$0, %eax
	call	ecs_os_err
	addq	$48, %rsp
	jmp	.L61
.L59:
	cmpl	$0, -340(%rbp)
	js	.L64
	movq	-312(%rbp), %rsi
	movl	-344(%rbp), %ecx
	movq	-352(%rbp), %rdx
	leaq	-304(%rbp), %rax
	movq	%rsi, %r8
	movq	%rax, %rsi
	leaq	.LC25(%rip), %rdi
	movl	$0, %eax
	call	ecs_os_log
	jmp	.L61
.L64:
	cmpl	$-2, -340(%rbp)
	jne	.L65
	movq	-312(%rbp), %rsi
	movl	-344(%rbp), %ecx
	movq	-352(%rbp), %rdx
	leaq	-304(%rbp), %rax
	movq	%rsi, %r8
	movq	%rax, %rsi
	leaq	.LC26(%rip), %rdi
	movl	$0, %eax
	call	ecs_os_warn
	jmp	.L61
.L65:
	cmpl	$-3, -340(%rbp)
	jne	.L66
	movq	-312(%rbp), %rsi
	movl	-344(%rbp), %ecx
	movq	-352(%rbp), %rdx
	leaq	-304(%rbp), %rax
	movq	%rsi, %r8
	movq	%rax, %rsi
	leaq	.LC27(%rip), %rdi
	movl	$0, %eax
	call	ecs_os_err
	jmp	.L61
.L66:
	cmpl	$-4, -340(%rbp)
	jne	.L61
	movq	-312(%rbp), %rsi
	movl	-344(%rbp), %ecx
	movq	-352(%rbp), %rdx
	leaq	-304(%rbp), %rax
	movq	%rsi, %r8
	movq	%rax, %rsi
	leaq	.LC28(%rip), %rdi
	movl	$0, %eax
	call	ecs_os_err
.L61:
	movq	40+ecs_os_api(%rip), %rdx
	movq	-312(%rbp), %rax
	movq	%rax, %rdi
	call	*%rdx
	movq	40+ecs_os_api(%rip), %rdx
	movq	-320(%rbp), %rax
	movq	%rax, %rdi
	call	*%rdx
	jmp	.L51
.L68:
	nop
.L51:
	movq	-8(%rbp), %rax
	xorq	%fs:40, %rax
	je	.L67
	call	__stack_chk_fail@PLT
.L67:
	leave
	.cfi_def_cfa 7, 8
	ret
	.cfi_endproc
.LFE8:
	.size	ecs_log_print, .-ecs_log_print
	.globl	_ecs_trace
	.type	_ecs_trace, @function
_ecs_trace:
.LFB9:
	.cfi_startproc
	endbr64
	pushq	%rbp
	.cfi_def_cfa_offset 16
	.cfi_offset 6, -16
	movq	%rsp, %rbp
	.cfi_def_cfa_register 6
	subq	$240, %rsp
	movl	%edi, -212(%rbp)
	movq	%rsi, -224(%rbp)
	movl	%edx, -216(%rbp)
	movq	%rcx, -232(%rbp)
	movq	%r8, -144(%rbp)
	movq	%r9, -136(%rbp)
	testb	%al, %al
	je	.L70
	movaps	%xmm0, -128(%rbp)
	movaps	%xmm1, -112(%rbp)
	movaps	%xmm2, -96(%rbp)
	movaps	%xmm3, -80(%rbp)
	movaps	%xmm4, -64(%rbp)
	movaps	%xmm5, -48(%rbp)
	movaps	%xmm6, -32(%rbp)
	movaps	%xmm7, -16(%rbp)
.L70:
	movq	%fs:40, %rax
	movq	%rax, -184(%rbp)
	xorl	%eax, %eax
	movl	$32, -208(%rbp)
	movl	$48, -204(%rbp)
	leaq	16(%rbp), %rax
	movq	%rax, -200(%rbp)
	leaq	-176(%rbp), %rax
	movq	%rax, -192(%rbp)
	leaq	-208(%rbp), %rdi
	movq	-232(%rbp), %rcx
	movl	-216(%rbp), %edx
	movq	-224(%rbp), %rsi
	movl	-212(%rbp), %eax
	movq	%rdi, %r8
	movl	%eax, %edi
	call	ecs_log_print
	nop
	movq	-184(%rbp), %rax
	xorq	%fs:40, %rax
	je	.L71
	call	__stack_chk_fail@PLT
.L71:
	leave
	.cfi_def_cfa 7, 8
	ret
	.cfi_endproc
.LFE9:
	.size	_ecs_trace, .-_ecs_trace
	.globl	_ecs_warn
	.type	_ecs_warn, @function
_ecs_warn:
.LFB10:
	.cfi_startproc
	endbr64
	pushq	%rbp
	.cfi_def_cfa_offset 16
	.cfi_offset 6, -16
	movq	%rsp, %rbp
	.cfi_def_cfa_register 6
	subq	$240, %rsp
	movq	%rdi, -216(%rbp)
	movl	%esi, -220(%rbp)
	movq	%rdx, -232(%rbp)
	movq	%rcx, -152(%rbp)
	movq	%r8, -144(%rbp)
	movq	%r9, -136(%rbp)
	testb	%al, %al
	je	.L73
	movaps	%xmm0, -128(%rbp)
	movaps	%xmm1, -112(%rbp)
	movaps	%xmm2, -96(%rbp)
	movaps	%xmm3, -80(%rbp)
	movaps	%xmm4, -64(%rbp)
	movaps	%xmm5, -48(%rbp)
	movaps	%xmm6, -32(%rbp)
	movaps	%xmm7, -16(%rbp)
.L73:
	movq	%fs:40, %rax
	movq	%rax, -184(%rbp)
	xorl	%eax, %eax
	movl	$24, -208(%rbp)
	movl	$48, -204(%rbp)
	leaq	16(%rbp), %rax
	movq	%rax, -200(%rbp)
	leaq	-176(%rbp), %rax
	movq	%rax, -192(%rbp)
	leaq	-208(%rbp), %rsi
	movq	-232(%rbp), %rcx
	movl	-220(%rbp), %edx
	movq	-216(%rbp), %rax
	movq	%rsi, %r8
	movq	%rax, %rsi
	movl	$-2, %edi
	call	ecs_log_print
	nop
	movq	-184(%rbp), %rax
	xorq	%fs:40, %rax
	je	.L74
	call	__stack_chk_fail@PLT
.L74:
	leave
	.cfi_def_cfa 7, 8
	ret
	.cfi_endproc
.LFE10:
	.size	_ecs_warn, .-_ecs_warn
	.globl	_ecs_err
	.type	_ecs_err, @function
_ecs_err:
.LFB11:
	.cfi_startproc
	endbr64
	pushq	%rbp
	.cfi_def_cfa_offset 16
	.cfi_offset 6, -16
	movq	%rsp, %rbp
	.cfi_def_cfa_register 6
	subq	$240, %rsp
	movq	%rdi, -216(%rbp)
	movl	%esi, -220(%rbp)
	movq	%rdx, -232(%rbp)
	movq	%rcx, -152(%rbp)
	movq	%r8, -144(%rbp)
	movq	%r9, -136(%rbp)
	testb	%al, %al
	je	.L76
	movaps	%xmm0, -128(%rbp)
	movaps	%xmm1, -112(%rbp)
	movaps	%xmm2, -96(%rbp)
	movaps	%xmm3, -80(%rbp)
	movaps	%xmm4, -64(%rbp)
	movaps	%xmm5, -48(%rbp)
	movaps	%xmm6, -32(%rbp)
	movaps	%xmm7, -16(%rbp)
.L76:
	movq	%fs:40, %rax
	movq	%rax, -184(%rbp)
	xorl	%eax, %eax
	movl	$24, -208(%rbp)
	movl	$48, -204(%rbp)
	leaq	16(%rbp), %rax
	movq	%rax, -200(%rbp)
	leaq	-176(%rbp), %rax
	movq	%rax, -192(%rbp)
	leaq	-208(%rbp), %rsi
	movq	-232(%rbp), %rcx
	movl	-220(%rbp), %edx
	movq	-216(%rbp), %rax
	movq	%rsi, %r8
	movq	%rax, %rsi
	movl	$-3, %edi
	call	ecs_log_print
	nop
	movq	-184(%rbp), %rax
	xorq	%fs:40, %rax
	je	.L77
	call	__stack_chk_fail@PLT
.L77:
	leave
	.cfi_def_cfa 7, 8
	ret
	.cfi_endproc
.LFE11:
	.size	_ecs_err, .-_ecs_err
	.globl	_ecs_fatal
	.type	_ecs_fatal, @function
_ecs_fatal:
.LFB12:
	.cfi_startproc
	endbr64
	pushq	%rbp
	.cfi_def_cfa_offset 16
	.cfi_offset 6, -16
	movq	%rsp, %rbp
	.cfi_def_cfa_register 6
	subq	$240, %rsp
	movq	%rdi, -216(%rbp)
	movl	%esi, -220(%rbp)
	movq	%rdx, -232(%rbp)
	movq	%rcx, -152(%rbp)
	movq	%r8, -144(%rbp)
	movq	%r9, -136(%rbp)
	testb	%al, %al
	je	.L79
	movaps	%xmm0, -128(%rbp)
	movaps	%xmm1, -112(%rbp)
	movaps	%xmm2, -96(%rbp)
	movaps	%xmm3, -80(%rbp)
	movaps	%xmm4, -64(%rbp)
	movaps	%xmm5, -48(%rbp)
	movaps	%xmm6, -32(%rbp)
	movaps	%xmm7, -16(%rbp)
.L79:
	movq	%fs:40, %rax
	movq	%rax, -184(%rbp)
	xorl	%eax, %eax
	movl	$24, -208(%rbp)
	movl	$48, -204(%rbp)
	leaq	16(%rbp), %rax
	movq	%rax, -200(%rbp)
	leaq	-176(%rbp), %rax
	movq	%rax, -192(%rbp)
	leaq	-208(%rbp), %rsi
	movq	-232(%rbp), %rcx
	movl	-220(%rbp), %edx
	movq	-216(%rbp), %rax
	movq	%rsi, %r8
	movq	%rax, %rsi
	movl	$-4, %edi
	call	ecs_log_print
	nop
	movq	-184(%rbp), %rax
	xorq	%fs:40, %rax
	je	.L80
	call	__stack_chk_fail@PLT
.L80:
	leave
	.cfi_def_cfa 7, 8
	ret
	.cfi_endproc
.LFE12:
	.size	_ecs_fatal, .-_ecs_fatal
	.globl	ecs_log_push
	.type	ecs_log_push, @function
ecs_log_push:
.LFB13:
	.cfi_startproc
	endbr64
	pushq	%rbp
	.cfi_def_cfa_offset 16
	.cfi_offset 6, -16
	movq	%rsp, %rbp
	.cfi_def_cfa_register 6
	movl	trace_indent(%rip), %eax
	addl	$1, %eax
	movl	%eax, trace_indent(%rip)
	nop
	popq	%rbp
	.cfi_def_cfa 7, 8
	ret
	.cfi_endproc
.LFE13:
	.size	ecs_log_push, .-ecs_log_push
	.globl	ecs_log_pop
	.type	ecs_log_pop, @function
ecs_log_pop:
.LFB14:
	.cfi_startproc
	endbr64
	pushq	%rbp
	.cfi_def_cfa_offset 16
	.cfi_offset 6, -16
	movq	%rsp, %rbp
	.cfi_def_cfa_register 6
	movl	trace_indent(%rip), %eax
	subl	$1, %eax
	movl	%eax, trace_indent(%rip)
	nop
	popq	%rbp
	.cfi_def_cfa 7, 8
	ret
	.cfi_endproc
.LFE14:
	.size	ecs_log_pop, .-ecs_log_pop
	.globl	ecs_tracing_enable
	.type	ecs_tracing_enable, @function
ecs_tracing_enable:
.LFB15:
	.cfi_startproc
	endbr64
	pushq	%rbp
	.cfi_def_cfa_offset 16
	.cfi_offset 6, -16
	movq	%rsp, %rbp
	.cfi_def_cfa_register 6
	movl	%edi, -4(%rbp)
	movl	-4(%rbp), %eax
	movl	%eax, trace_level(%rip)
	nop
	popq	%rbp
	.cfi_def_cfa 7, 8
	ret
	.cfi_endproc
.LFE15:
	.size	ecs_tracing_enable, .-ecs_tracing_enable
	.globl	ecs_tracing_color_enable
	.type	ecs_tracing_color_enable, @function
ecs_tracing_color_enable:
.LFB16:
	.cfi_startproc
	endbr64
	pushq	%rbp
	.cfi_def_cfa_offset 16
	.cfi_offset 6, -16
	movq	%rsp, %rbp
	.cfi_def_cfa_register 6
	movl	%edi, %eax
	movb	%al, -4(%rbp)
	movzbl	-4(%rbp), %eax
	movb	%al, trace_color(%rip)
	nop
	popq	%rbp
	.cfi_def_cfa 7, 8
	ret
	.cfi_endproc
.LFE16:
	.size	ecs_tracing_color_enable, .-ecs_tracing_color_enable
	.section	.rodata
.LC29:
	.string	"%s:%d: error: %s"
.LC30:
	.string	"%d: error: %s"
.LC31:
	.string	"%s: error: %s"
.LC32:
	.string	"error: %s"
.LC33:
	.string	"    %s"
.LC34:
	.string	""
.LC35:
	.string	"    %*s^"
	.text
	.globl	_ecs_parser_error
	.type	_ecs_parser_error, @function
_ecs_parser_error:
.LFB17:
	.cfi_startproc
	endbr64
	pushq	%rbp
	.cfi_def_cfa_offset 16
	.cfi_offset 6, -16
	movq	%rsp, %rbp
	.cfi_def_cfa_register 6
	subq	$256, %rsp
	movq	%rdi, -232(%rbp)
	movq	%rsi, -240(%rbp)
	movq	%rdx, -248(%rbp)
	movq	%rcx, -256(%rbp)
	movq	%r8, -144(%rbp)
	movq	%r9, -136(%rbp)
	testb	%al, %al
	je	.L86
	movaps	%xmm0, -128(%rbp)
	movaps	%xmm1, -112(%rbp)
	movaps	%xmm2, -96(%rbp)
	movaps	%xmm3, -80(%rbp)
	movaps	%xmm4, -64(%rbp)
	movaps	%xmm5, -48(%rbp)
	movaps	%xmm6, -32(%rbp)
	movaps	%xmm7, -16(%rbp)
.L86:
	movq	%fs:40, %rax
	movq	%rax, -184(%rbp)
	xorl	%eax, %eax
	movl	trace_level(%rip), %eax
	cmpl	$-2, %eax
	jl	.L87
	movl	$32, -208(%rbp)
	movl	$48, -204(%rbp)
	leaq	16(%rbp), %rax
	movq	%rax, -200(%rbp)
	leaq	-176(%rbp), %rax
	movq	%rax, -192(%rbp)
	leaq	-208(%rbp), %rdx
	movq	-256(%rbp), %rax
	movq	%rdx, %rsi
	movq	%rax, %rdi
	call	ecs_vasprintf
	movq	%rax, -216(%rbp)
	cmpq	$-1, -248(%rbp)
	je	.L88
	cmpq	$0, -232(%rbp)
	je	.L89
	movq	-248(%rbp), %rax
	leaq	1(%rax), %rsi
	movq	-216(%rbp), %rdx
	movq	-232(%rbp), %rax
	movq	%rdx, %rcx
	movq	%rsi, %rdx
	movq	%rax, %rsi
	leaq	.LC29(%rip), %rdi
	movl	$0, %eax
	call	ecs_os_err
	jmp	.L90
.L89:
	movq	-248(%rbp), %rax
	leaq	1(%rax), %rcx
	movq	-216(%rbp), %rax
	movq	%rax, %rdx
	movq	%rcx, %rsi
	leaq	.LC30(%rip), %rdi
	movl	$0, %eax
	call	ecs_os_err
	jmp	.L90
.L88:
	cmpq	$0, -232(%rbp)
	je	.L91
	movq	-216(%rbp), %rdx
	movq	-232(%rbp), %rax
	movq	%rax, %rsi
	leaq	.LC31(%rip), %rdi
	movl	$0, %eax
	call	ecs_os_err
	jmp	.L90
.L91:
	movq	-216(%rbp), %rax
	movq	%rax, %rsi
	leaq	.LC32(%rip), %rdi
	movl	$0, %eax
	call	ecs_os_err
.L90:
	movq	-240(%rbp), %rax
	movq	%rax, %rsi
	leaq	.LC33(%rip), %rdi
	movl	$0, %eax
	call	ecs_os_err
	cmpq	$-1, -248(%rbp)
	je	.L92
	movq	-248(%rbp), %rax
	leaq	.LC34(%rip), %rdx
	movq	%rax, %rsi
	leaq	.LC35(%rip), %rdi
	movl	$0, %eax
	call	ecs_os_err
	jmp	.L93
.L92:
	leaq	.LC34(%rip), %rdi
	movl	$0, %eax
	call	ecs_os_err
.L93:
	movq	40+ecs_os_api(%rip), %rdx
	movq	-216(%rbp), %rax
	movq	%rax, %rdi
	call	*%rdx
.L87:
	movq	208+ecs_os_api(%rip), %rax
	call	*%rax
	nop
	movq	-184(%rbp), %rax
	xorq	%fs:40, %rax
	je	.L94
	call	__stack_chk_fail@PLT
.L94:
	leave
	.cfi_def_cfa 7, 8
	ret
	.cfi_endproc
.LFE17:
	.size	_ecs_parser_error, .-_ecs_parser_error
	.section	.rodata
.LC36:
	.string	"%s (%s)"
.LC37:
	.string	"%s"
	.text
	.globl	_ecs_abort
	.type	_ecs_abort, @function
_ecs_abort:
.LFB18:
	.cfi_startproc
	endbr64
	pushq	%rbp
	.cfi_def_cfa_offset 16
	.cfi_offset 6, -16
	movq	%rsp, %rbp
	.cfi_def_cfa_register 6
	subq	$256, %rsp
	movl	%edi, -228(%rbp)
	movq	%rsi, -240(%rbp)
	movl	%edx, -232(%rbp)
	movq	%rcx, -248(%rbp)
	movq	%r8, -144(%rbp)
	movq	%r9, -136(%rbp)
	testb	%al, %al
	je	.L96
	movaps	%xmm0, -128(%rbp)
	movaps	%xmm1, -112(%rbp)
	movaps	%xmm2, -96(%rbp)
	movaps	%xmm3, -80(%rbp)
	movaps	%xmm4, -64(%rbp)
	movaps	%xmm5, -48(%rbp)
	movaps	%xmm6, -32(%rbp)
	movaps	%xmm7, -16(%rbp)
.L96:
	movq	%fs:40, %rax
	movq	%rax, -184(%rbp)
	xorl	%eax, %eax
	cmpq	$0, -248(%rbp)
	je	.L97
	movl	$32, -208(%rbp)
	movl	$48, -204(%rbp)
	leaq	16(%rbp), %rax
	movq	%rax, -200(%rbp)
	leaq	-176(%rbp), %rax
	movq	%rax, -192(%rbp)
	leaq	-208(%rbp), %rdx
	movq	-248(%rbp), %rax
	movq	%rdx, %rsi
	movq	%rax, %rdi
	call	ecs_vasprintf
	movq	%rax, -216(%rbp)
	movl	-228(%rbp), %eax
	movl	%eax, %edi
	call	ecs_strerror
	movq	%rax, %rcx
	movq	-216(%rbp), %rdx
	movl	-232(%rbp), %esi
	movq	-240(%rbp), %rax
	movq	%rcx, %r8
	movq	%rdx, %rcx
	leaq	.LC36(%rip), %rdx
	movq	%rax, %rdi
	movl	$0, %eax
	call	_ecs_fatal
	movq	40+ecs_os_api(%rip), %rdx
	movq	-216(%rbp), %rax
	movq	%rax, %rdi
	call	*%rdx
	jmp	.L98
.L97:
	movl	-228(%rbp), %eax
	movl	%eax, %edi
	call	ecs_strerror
	movq	%rax, %rdx
	movl	-232(%rbp), %esi
	movq	-240(%rbp), %rax
	movq	%rdx, %rcx
	leaq	.LC37(%rip), %rdx
	movq	%rax, %rdi
	movl	$0, %eax
	call	_ecs_fatal
.L98:
	movq	208+ecs_os_api(%rip), %rax
	call	*%rax
	nop
	movq	-184(%rbp), %rax
	xorq	%fs:40, %rax
	je	.L99
	call	__stack_chk_fail@PLT
.L99:
	leave
	.cfi_def_cfa 7, 8
	ret
	.cfi_endproc
.LFE18:
	.size	_ecs_abort, .-_ecs_abort
	.section	.rodata
.LC38:
	.string	"assert(%s) %s (%s)"
.LC39:
	.string	"assert(%s) %s"
	.text
	.globl	_ecs_assert
	.type	_ecs_assert, @function
_ecs_assert:
.LFB19:
	.cfi_startproc
	endbr64
	pushq	%rbp
	.cfi_def_cfa_offset 16
	.cfi_offset 6, -16
	movq	%rsp, %rbp
	.cfi_def_cfa_register 6
	subq	$272, %rsp
	movl	%esi, -232(%rbp)
	movq	%rdx, -240(%rbp)
	movq	%rcx, -248(%rbp)
	movl	%r8d, -252(%rbp)
	movq	%r9, -264(%rbp)
	testb	%al, %al
	je	.L101
	movaps	%xmm0, -128(%rbp)
	movaps	%xmm1, -112(%rbp)
	movaps	%xmm2, -96(%rbp)
	movaps	%xmm3, -80(%rbp)
	movaps	%xmm4, -64(%rbp)
	movaps	%xmm5, -48(%rbp)
	movaps	%xmm6, -32(%rbp)
	movaps	%xmm7, -16(%rbp)
.L101:
	movl	%edi, %eax
	movb	%al, -228(%rbp)
	movq	%fs:40, %rax
	movq	%rax, -184(%rbp)
	xorl	%eax, %eax
	movzbl	-228(%rbp), %eax
	xorl	$1, %eax
	testb	%al, %al
	je	.L106
	cmpq	$0, -264(%rbp)
	je	.L103
	movl	$48, -208(%rbp)
	movl	$48, -204(%rbp)
	leaq	16(%rbp), %rax
	movq	%rax, -200(%rbp)
	leaq	-176(%rbp), %rax
	movq	%rax, -192(%rbp)
	leaq	-208(%rbp), %rdx
	movq	-264(%rbp), %rax
	movq	%rdx, %rsi
	movq	%rax, %rdi
	call	ecs_vasprintf
	movq	%rax, -216(%rbp)
	movl	-232(%rbp), %eax
	movl	%eax, %edi
	call	ecs_strerror
	movq	%rax, %rcx
	movq	-216(%rbp), %rdi
	movq	-240(%rbp), %rdx
	movl	-252(%rbp), %esi
	movq	-248(%rbp), %rax
	movq	%rcx, %r9
	movq	%rdi, %r8
	movq	%rdx, %rcx
	leaq	.LC38(%rip), %rdx
	movq	%rax, %rdi
	movl	$0, %eax
	call	_ecs_fatal
	movq	40+ecs_os_api(%rip), %rdx
	movq	-216(%rbp), %rax
	movq	%rax, %rdi
	call	*%rdx
	jmp	.L104
.L103:
	movl	-232(%rbp), %eax
	movl	%eax, %edi
	call	ecs_strerror
	movq	%rax, %rcx
	movq	-240(%rbp), %rdx
	movl	-252(%rbp), %esi
	movq	-248(%rbp), %rax
	movq	%rcx, %r8
	movq	%rdx, %rcx
	leaq	.LC39(%rip), %rdx
	movq	%rax, %rdi
	movl	$0, %eax
	call	_ecs_fatal
.L104:
	movq	208+ecs_os_api(%rip), %rax
	call	*%rax
.L106:
	nop
	movq	-184(%rbp), %rax
	xorq	%fs:40, %rax
	je	.L105
	call	__stack_chk_fail@PLT
.L105:
	leave
	.cfi_def_cfa 7, 8
	ret
	.cfi_endproc
.LFE19:
	.size	_ecs_assert, .-_ecs_assert
	.globl	_ecs_deprecated
	.type	_ecs_deprecated, @function
_ecs_deprecated:
.LFB20:
	.cfi_startproc
	endbr64
	pushq	%rbp
	.cfi_def_cfa_offset 16
	.cfi_offset 6, -16
	movq	%rsp, %rbp
	.cfi_def_cfa_register 6
	subq	$32, %rsp
	movq	%rdi, -8(%rbp)
	movl	%esi, -12(%rbp)
	movq	%rdx, -24(%rbp)
	movq	-24(%rbp), %rdx
	movl	-12(%rbp), %esi
	movq	-8(%rbp), %rax
	movq	%rdx, %rcx
	leaq	.LC37(%rip), %rdx
	movq	%rax, %rdi
	movl	$0, %eax
	call	_ecs_err
	nop
	leave
	.cfi_def_cfa 7, 8
	ret
	.cfi_endproc
.LFE20:
	.size	_ecs_deprecated, .-_ecs_deprecated
	.section	.rodata
.LC40:
	.string	"ECS_INVALID_PARAMETER"
.LC41:
	.string	"ECS_NOT_A_COMPONENT"
.LC42:
	.string	"ECS_TYPE_NOT_AN_ENTITY"
.LC43:
	.string	"ECS_INTERNAL_ERROR"
.LC44:
	.string	"ECS_ALREADY_DEFINED"
.LC45:
	.string	"ECS_INVALID_COMPONENT_SIZE"
	.align 8
.LC46:
	.string	"ECS_INVALID_COMPONENT_ALIGNMENT"
.LC47:
	.string	"ECS_OUT_OF_MEMORY"
.LC48:
	.string	"ECS_MODULE_UNDEFINED"
.LC49:
	.string	"ECS_COLUMN_INDEX_OUT_OF_RANGE"
.LC50:
	.string	"ECS_COLUMN_IS_NOT_SHARED"
.LC51:
	.string	"ECS_COLUMN_IS_SHARED"
.LC52:
	.string	"ECS_COLUMN_HAS_NO_DATA"
.LC53:
	.string	"ECS_COLUMN_TYPE_MISMATCH"
.LC54:
	.string	"ECS_INVALID_WHILE_ITERATING"
.LC55:
	.string	"ECS_INVALID_FROM_WORKER"
.LC56:
	.string	"ECS_OUT_OF_RANGE"
.LC57:
	.string	"ECS_THREAD_ERROR"
.LC58:
	.string	"ECS_MISSING_OS_API"
.LC59:
	.string	"ECS_UNSUPPORTED"
.LC60:
	.string	"ECS_NO_OUT_COLUMNS"
.LC61:
	.string	"ECS_COLUMN_ACCESS_VIOLATION"
.LC62:
	.string	"ECS_DESERIALIZE_FORMAT_ERROR"
.LC63:
	.string	"ECS_TYPE_CONSTRAINT_VIOLATION"
.LC64:
	.string	"ECS_COMPONENT_NOT_REGISTERED"
.LC65:
	.string	"ECS_INCONSISTENT_COMPONENT_ID"
.LC66:
	.string	"ECS_TYPE_INVALID_CASE"
.LC67:
	.string	"ECS_INCONSISTENT_NAME"
	.align 8
.LC68:
	.string	"ECS_INCONSISTENT_COMPONENT_ACTION"
.LC69:
	.string	"ECS_INVALID_OPERATION"
.LC70:
	.string	"ECS_INVALID_DELETE"
.LC71:
	.string	"ECS_CYCLE_DETECTED"
.LC72:
	.string	"ECS_LOCKED_STORAGE"
.LC73:
	.string	"unknown error code"
	.text
	.globl	ecs_strerror
	.type	ecs_strerror, @function
ecs_strerror:
.LFB21:
	.cfi_startproc
	endbr64
	pushq	%rbp
	.cfi_def_cfa_offset 16
	.cfi_offset 6, -16
	movq	%rsp, %rbp
	.cfi_def_cfa_register 6
	movl	%edi, -4(%rbp)
	cmpl	$80, -4(%rbp)
	ja	.L109
	movl	-4(%rbp), %eax
	leaq	0(,%rax,4), %rdx
	leaq	.L111(%rip), %rax
	movl	(%rdx,%rax), %eax
	cltq
	leaq	.L111(%rip), %rdx
	addq	%rdx, %rax
	notrack jmp	*%rax
	.section	.rodata
	.align 4
	.align 4
.L111:
	.long	.L109-.L111
	.long	.L143-.L111
	.long	.L142-.L111
	.long	.L141-.L111
	.long	.L140-.L111
	.long	.L139-.L111
	.long	.L138-.L111
	.long	.L137-.L111
	.long	.L136-.L111
	.long	.L135-.L111
	.long	.L134-.L111
	.long	.L133-.L111
	.long	.L109-.L111
	.long	.L109-.L111
	.long	.L109-.L111
	.long	.L109-.L111
	.long	.L109-.L111
	.long	.L109-.L111
	.long	.L109-.L111
	.long	.L109-.L111
	.long	.L132-.L111
	.long	.L109-.L111
	.long	.L131-.L111
	.long	.L130-.L111
	.long	.L129-.L111
	.long	.L128-.L111
	.long	.L127-.L111
	.long	.L126-.L111
	.long	.L125-.L111
	.long	.L109-.L111
	.long	.L109-.L111
	.long	.L109-.L111
	.long	.L109-.L111
	.long	.L109-.L111
	.long	.L109-.L111
	.long	.L109-.L111
	.long	.L109-.L111
	.long	.L109-.L111
	.long	.L109-.L111
	.long	.L109-.L111
	.long	.L124-.L111
	.long	.L123-.L111
	.long	.L122-.L111
	.long	.L121-.L111
	.long	.L120-.L111
	.long	.L119-.L111
	.long	.L118-.L111
	.long	.L109-.L111
	.long	.L109-.L111
	.long	.L109-.L111
	.long	.L109-.L111
	.long	.L109-.L111
	.long	.L109-.L111
	.long	.L109-.L111
	.long	.L109-.L111
	.long	.L109-.L111
	.long	.L109-.L111
	.long	.L109-.L111
	.long	.L109-.L111
	.long	.L109-.L111
	.long	.L117-.L111
	.long	.L116-.L111
	.long	.L115-.L111
	.long	.L109-.L111
	.long	.L109-.L111
	.long	.L109-.L111
	.long	.L109-.L111
	.long	.L109-.L111
	.long	.L109-.L111
	.long	.L109-.L111
	.long	.L114-.L111
	.long	.L113-.L111
	.long	.L112-.L111
	.long	.L109-.L111
	.long	.L109-.L111
	.long	.L109-.L111
	.long	.L109-.L111
	.long	.L109-.L111
	.long	.L109-.L111
	.long	.L109-.L111
	.long	.L110-.L111
	.text
.L142:
	leaq	4+.LC40(%rip), %rax
	jmp	.L144
.L131:
	leaq	4+.LC41(%rip), %rax
	jmp	.L144
.L117:
	leaq	4+.LC42(%rip), %rax
	jmp	.L144
.L137:
	leaq	4+.LC43(%rip), %rax
	jmp	.L144
.L136:
	leaq	4+.LC44(%rip), %rax
	jmp	.L144
.L130:
	leaq	4+.LC45(%rip), %rax
	jmp	.L144
.L129:
	leaq	4+.LC46(%rip), %rax
	jmp	.L144
.L140:
	leaq	4+.LC47(%rip), %rax
	jmp	.L144
.L125:
	leaq	4+.LC48(%rip), %rax
	jmp	.L144
.L123:
	leaq	4+.LC49(%rip), %rax
	jmp	.L144
.L122:
	leaq	4+.LC50(%rip), %rax
	jmp	.L144
.L121:
	leaq	4+.LC51(%rip), %rax
	jmp	.L144
.L120:
	leaq	4+.LC52(%rip), %rax
	jmp	.L144
.L119:
	leaq	4+.LC53(%rip), %rax
	jmp	.L144
.L114:
	leaq	4+.LC54(%rip), %rax
	jmp	.L144
.L112:
	leaq	4+.LC55(%rip), %rax
	jmp	.L144
.L139:
	leaq	4+.LC56(%rip), %rax
	jmp	.L144
.L134:
	leaq	4+.LC57(%rip), %rax
	jmp	.L144
.L135:
	leaq	4+.LC58(%rip), %rax
	jmp	.L144
.L138:
	leaq	4+.LC59(%rip), %rax
	jmp	.L144
.L118:
	leaq	4+.LC60(%rip), %rax
	jmp	.L144
.L124:
	leaq	4+.LC61(%rip), %rax
	jmp	.L144
.L110:
	leaq	4+.LC62(%rip), %rax
	jmp	.L144
.L116:
	leaq	4+.LC63(%rip), %rax
	jmp	.L144
.L128:
	leaq	4+.LC64(%rip), %rax
	jmp	.L144
.L127:
	leaq	4+.LC65(%rip), %rax
	jmp	.L144
.L115:
	leaq	4+.LC66(%rip), %rax
	jmp	.L144
.L132:
	leaq	4+.LC67(%rip), %rax
	jmp	.L144
.L126:
	leaq	4+.LC68(%rip), %rax
	jmp	.L144
.L143:
	leaq	4+.LC69(%rip), %rax
	jmp	.L144
.L141:
	leaq	4+.LC70(%rip), %rax
	jmp	.L144
.L133:
	leaq	4+.LC71(%rip), %rax
	jmp	.L144
.L113:
	leaq	4+.LC72(%rip), %rax
	jmp	.L144
.L109:
	leaq	.LC73(%rip), %rax
.L144:
	popq	%rbp
	.cfi_def_cfa 7, 8
	ret
	.cfi_endproc
.LFE21:
	.size	ecs_strerror, .-ecs_strerror
	.section	.rodata
.LC74:
	.string	"flecs.c"
.LC75:
	.string	"ECS_HAS_ROLE(e, SWITCH)"
	.align 8
.LC76:
	.string	"((e & (0xFFull << 56)) == ECS_SWITCH)"
.LC77:
	.string	"type_ptr != NULL"
.LC78:
	.string	"type_ptr != ((void *)0)"
	.text
	.globl	flecs_init_data
	.type	flecs_init_data, @function
flecs_init_data:
.LFB22:
	.cfi_startproc
	endbr64
	pushq	%rbp
	.cfi_def_cfa_offset 16
	.cfi_offset 6, -16
	movq	%rsp, %rbp
	.cfi_def_cfa_register 6
	pushq	%rbx
	subq	$152, %rsp
	.cfi_offset 3, -24
	movq	%rdi, -136(%rbp)
	movq	%rsi, -144(%rbp)
	movq	%rdx, -152(%rbp)
	movq	-144(%rbp), %rax
	movq	8(%rax), %rax
	movq	%rax, -88(%rbp)
	movq	-144(%rbp), %rax
	movl	20(%rax), %eax
	movl	%eax, -116(%rbp)
	movq	-144(%rbp), %rax
	movl	116(%rax), %eax
	movl	%eax, -112(%rbp)
	movq	-144(%rbp), %rax
	movl	124(%rax), %eax
	movl	%eax, -108(%rbp)
	cmpl	$0, -116(%rbp)
	jne	.L146
	cmpl	$0, -112(%rbp)
	jne	.L146
	cmpl	$0, -108(%rbp)
	jne	.L146
	movq	-152(%rbp), %rax
	movq	$0, 16(%rax)
	movq	-152(%rbp), %rax
	jmp	.L147
.L146:
	movq	-88(%rbp), %rax
	movl	$16, %edx
	movl	$8, %esi
	movq	%rax, %rdi
	call	_ecs_vector_first
	movq	%rax, -80(%rbp)
	cmpl	$0, -116(%rbp)
	je	.L148
	cmpl	$0, -112(%rbp)
	jne	.L148
	movq	32+ecs_os_api(%rip), %rax
	movl	-116(%rbp), %edx
	sall	$4, %edx
	movl	%edx, %edi
	call	*%rax
	movq	-152(%rbp), %rdx
	movq	%rax, 16(%rdx)
	jmp	.L149
.L148:
	cmpl	$0, -116(%rbp)
	jne	.L150
	cmpl	$0, -112(%rbp)
	je	.L149
.L150:
	movq	-88(%rbp), %rax
	movq	%rax, %rdi
	call	ecs_vector_count
	movl	%eax, -104(%rbp)
	movq	32+ecs_os_api(%rip), %rax
	movl	-104(%rbp), %edx
	sall	$4, %edx
	movl	%edx, %edi
	call	*%rax
	movq	-152(%rbp), %rdx
	movq	%rax, 16(%rdx)
.L149:
	cmpl	$0, -116(%rbp)
	je	.L151
	movl	$0, -120(%rbp)
	jmp	.L152
.L154:
	movl	-120(%rbp), %eax
	cltq
	leaq	0(,%rax,8), %rdx
	movq	-80(%rbp), %rax
	addq	%rdx, %rax
	movq	(%rax), %rax
	movq	%rax, -72(%rbp)
	movq	-72(%rbp), %rdx
	movq	-136(%rbp), %rax
	movq	%rdx, %rsi
	movq	%rax, %rdi
	call	flecs_component_from_id
	movq	%rax, -64(%rbp)
	cmpq	$0, -64(%rbp)
	je	.L153
	movq	-64(%rbp), %rax
	movl	(%rax), %eax
	testl	%eax, %eax
	je	.L153
	movq	-64(%rbp), %rax
	movl	(%rax), %eax
	cltq
	movq	-152(%rbp), %rdx
	movq	16(%rdx), %rdx
	movl	-120(%rbp), %ecx
	movslq	%ecx, %rcx
	salq	$4, %rcx
	leaq	(%rdx,%rcx), %rbx
	movq	%rax, %rdi
	call	flecs_to_i16
	movw	%ax, 8(%rbx)
	movq	-64(%rbp), %rax
	movl	4(%rax), %eax
	cltq
	movq	-152(%rbp), %rdx
	movq	16(%rdx), %rdx
	movl	-120(%rbp), %ecx
	movslq	%ecx, %rcx
	salq	$4, %rcx
	leaq	(%rdx,%rcx), %rbx
	movq	%rax, %rdi
	call	flecs_to_i16
	movw	%ax, 10(%rbx)
.L153:
	addl	$1, -120(%rbp)
.L152:
	movl	-120(%rbp), %eax
	cmpl	-116(%rbp), %eax
	jl	.L154
.L151:
	cmpl	$0, -112(%rbp)
	je	.L155
	movq	-144(%rbp), %rax
	movl	120(%rax), %eax
	movl	%eax, -100(%rbp)
	movq	32+ecs_os_api(%rip), %rax
	movl	-112(%rbp), %edx
	sall	$4, %edx
	movl	%edx, %edi
	call	*%rax
	movq	-152(%rbp), %rdx
	movq	%rax, 24(%rdx)
	movl	$0, -120(%rbp)
	jmp	.L156
.L159:
	movl	-120(%rbp), %edx
	movl	-100(%rbp), %eax
	addl	%edx, %eax
	cltq
	leaq	0(,%rax,8), %rdx
	movq	-80(%rbp), %rax
	addq	%rdx, %rax
	movq	(%rax), %rax
	movq	%rax, -56(%rbp)
	movabsq	$-72057594037927936, %rax
	andq	-56(%rbp), %rax
	movabsq	$-360287970189639680, %rdx
	cmpq	%rdx, %rax
	sete	%al
	movzbl	%al, %eax
	movl	$0, %r9d
	movl	$2457, %r8d
	leaq	.LC74(%rip), %rcx
	leaq	.LC75(%rip), %rdx
	movl	$7, %esi
	movl	%eax, %edi
	movl	$0, %eax
	call	_ecs_assert
	movabsq	$-72057594037927936, %rax
	andq	-56(%rbp), %rax
	movabsq	$-360287970189639680, %rdx
	cmpq	%rdx, %rax
	je	.L157
	leaq	__PRETTY_FUNCTION__.7960(%rip), %rcx
	movl	$2457, %edx
	leaq	.LC74(%rip), %rsi
	leaq	.LC76(%rip), %rdi
	call	__assert_fail@PLT
.L157:
	movabsq	$72057594037927935, %rax
	andq	%rax, -56(%rbp)
	movq	-56(%rbp), %rcx
	movq	-136(%rbp), %rax
	movl	$3, %edx
	movq	%rcx, %rsi
	movq	%rax, %rdi
	call	ecs_get_id
	movq	%rax, -48(%rbp)
	cmpq	$0, -48(%rbp)
	setne	%al
	movzbl	%al, %eax
	movl	$0, %r9d
	movl	$2460, %r8d
	leaq	.LC74(%rip), %rcx
	leaq	.LC77(%rip), %rdx
	movl	$7, %esi
	movl	%eax, %edi
	movl	$0, %eax
	call	_ecs_assert
	cmpq	$0, -48(%rbp)
	jne	.L158
	leaq	__PRETTY_FUNCTION__.7960(%rip), %rcx
	movl	$2460, %edx
	leaq	.LC74(%rip), %rsi
	leaq	.LC78(%rip), %rdi
	call	__assert_fail@PLT
.L158:
	movq	-48(%rbp), %rax
	movq	8(%rax), %rax
	movq	%rax, -40(%rbp)
	movq	-40(%rbp), %rax
	movl	$16, %edx
	movl	$8, %esi
	movq	%rax, %rdi
	call	_ecs_vector_first
	movq	%rax, -32(%rbp)
	movq	-40(%rbp), %rax
	movq	%rax, %rdi
	call	ecs_vector_count
	movl	%eax, -96(%rbp)
	movl	-96(%rbp), %eax
	cltq
	salq	$3, %rax
	leaq	-8(%rax), %rdx
	movq	-32(%rbp), %rax
	addq	%rdx, %rax
	movq	(%rax), %rcx
	movq	-32(%rbp), %rax
	movq	(%rax), %rax
	movl	$0, %edx
	movq	%rcx, %rsi
	movq	%rax, %rdi
	call	flecs_switch_new
	movq	%rax, -24(%rbp)
	movq	-152(%rbp), %rax
	movq	24(%rax), %rax
	movl	-120(%rbp), %edx
	movslq	%edx, %rdx
	salq	$4, %rdx
	addq	%rax, %rdx
	movq	-24(%rbp), %rax
	movq	%rax, (%rdx)
	movq	-152(%rbp), %rax
	movq	24(%rax), %rax
	movl	-120(%rbp), %edx
	movslq	%edx, %rdx
	salq	$4, %rdx
	addq	%rax, %rdx
	movq	-40(%rbp), %rax
	movq	%rax, 8(%rdx)
	movq	-144(%rbp), %rax
	movl	120(%rax), %edx
	movl	-120(%rbp), %eax
	addl	%edx, %eax
	movl	%eax, -92(%rbp)
	movq	-152(%rbp), %rax
	movq	16(%rax), %rax
	movl	-92(%rbp), %edx
	movslq	%edx, %rdx
	salq	$4, %rdx
	leaq	(%rax,%rdx), %rbx
	movq	-24(%rbp), %rax
	movq	%rax, %rdi
	call	flecs_switch_values
	movq	%rax, (%rbx)
	movq	-152(%rbp), %rax
	movq	16(%rax), %rax
	movl	-92(%rbp), %edx
	movslq	%edx, %rdx
	salq	$4, %rdx
	addq	%rdx, %rax
	movw	$8, 8(%rax)
	movq	-152(%rbp), %rax
	movq	16(%rax), %rax
	movl	-92(%rbp), %edx
	movslq	%edx, %rdx
	salq	$4, %rdx
	addq	%rdx, %rax
	movw	$8, 10(%rax)
	addl	$1, -120(%rbp)
.L156:
	movl	-120(%rbp), %eax
	cmpl	-112(%rbp), %eax
	jl	.L159
.L155:
	cmpl	$0, -108(%rbp)
	je	.L160
	movq	32+ecs_os_api(%rip), %rax
	movl	-108(%rbp), %edx
	sall	$4, %edx
	movl	%edx, %edi
	call	*%rax
	movq	-152(%rbp), %rdx
	movq	%rax, 32(%rdx)
	movl	$0, -120(%rbp)
	jmp	.L161
.L162:
	movq	-152(%rbp), %rax
	movq	32(%rax), %rax
	movl	-120(%rbp), %edx
	movslq	%edx, %rdx
	salq	$4, %rdx
	addq	%rdx, %rax
	movq	%rax, %rdi
	call	flecs_bitset_init
	addl	$1, -120(%rbp)
.L161:
	movl	-120(%rbp), %eax
	cmpl	-108(%rbp), %eax
	jl	.L162
.L160:
	movq	-152(%rbp), %rax
.L147:
	addq	$152, %rsp
	popq	%rbx
	popq	%rbp
	.cfi_def_cfa 7, 8
	ret
	.cfi_endproc
.LFE22:
	.size	flecs_init_data, .-flecs_init_data
	.type	get_component_action_flags, @function
get_component_action_flags:
.LFB23:
	.cfi_startproc
	endbr64
	pushq	%rbp
	.cfi_def_cfa_offset 16
	.cfi_offset 6, -16
	movq	%rsp, %rbp
	.cfi_def_cfa_register 6
	movq	%rdi, -24(%rbp)
	movl	$0, -4(%rbp)
	movq	-24(%rbp), %rax
	movq	(%rax), %rax
	testq	%rax, %rax
	je	.L164
	orl	$128, -4(%rbp)
.L164:
	movq	-24(%rbp), %rax
	movq	8(%rax), %rax
	testq	%rax, %rax
	je	.L165
	orl	$256, -4(%rbp)
.L165:
	movq	-24(%rbp), %rax
	movq	16(%rax), %rax
	testq	%rax, %rax
	je	.L166
	orl	$512, -4(%rbp)
.L166:
	movq	-24(%rbp), %rax
	movq	24(%rax), %rax
	testq	%rax, %rax
	je	.L167
	orl	$1024, -4(%rbp)
.L167:
	movl	-4(%rbp), %eax
	popq	%rbp
	.cfi_def_cfa 7, 8
	ret
	.cfi_endproc
.LFE23:
	.size	get_component_action_flags, .-get_component_action_flags
	.type	has_component, @function
has_component:
.LFB24:
	.cfi_startproc
	endbr64
	pushq	%rbp
	.cfi_def_cfa_offset 16
	.cfi_offset 6, -16
	movq	%rsp, %rbp
	.cfi_def_cfa_register 6
	subq	$48, %rsp
	movq	%rdi, -24(%rbp)
	movq	%rsi, -32(%rbp)
	movq	%rdx, -40(%rbp)
	movq	-32(%rbp), %rax
	movl	$16, %edx
	movl	$8, %esi
	movq	%rax, %rdi
	call	_ecs_vector_first
	movq	%rax, -8(%rbp)
	movq	-32(%rbp), %rax
	movq	%rax, %rdi
	call	ecs_vector_count
	movl	%eax, -12(%rbp)
	movl	$0, -16(%rbp)
	jmp	.L170
.L173:
	movl	-16(%rbp), %eax
	cltq
	leaq	0(,%rax,8), %rdx
	movq	-8(%rbp), %rax
	addq	%rdx, %rax
	movq	(%rax), %rdx
	movq	-24(%rbp), %rax
	movq	%rdx, %rsi
	movq	%rax, %rdi
	call	ecs_get_typeid
	cmpq	%rax, -40(%rbp)
	jne	.L171
	movl	$1, %eax
	jmp	.L172
.L171:
	addl	$1, -16(%rbp)
.L170:
	movl	-16(%rbp), %eax
	cmpl	-12(%rbp), %eax
	jl	.L173
	movl	$0, %eax
.L172:
	leave
	.cfi_def_cfa 7, 8
	ret
	.cfi_endproc
.LFE24:
	.size	has_component, .-has_component
	.section	.rodata
	.align 8
.LC79:
	.string	"!component || column_count != 0"
	.text
	.type	notify_component_info, @function
notify_component_info:
.LFB25:
	.cfi_startproc
	endbr64
	pushq	%rbp
	.cfi_def_cfa_offset 16
	.cfi_offset 6, -16
	movq	%rsp, %rbp
	.cfi_def_cfa_register 6
	subq	$80, %rsp
	movq	%rdi, -56(%rbp)
	movq	%rsi, -64(%rbp)
	movq	%rdx, -72(%rbp)
	movq	-64(%rbp), %rax
	movq	8(%rax), %rax
	movq	%rax, -32(%rbp)
	cmpq	$0, -72(%rbp)
	je	.L175
	movq	-72(%rbp), %rdx
	movq	-32(%rbp), %rcx
	movq	-56(%rbp), %rax
	movq	%rcx, %rsi
	movq	%rax, %rdi
	call	has_component
	testb	%al, %al
	je	.L174
.L175:
	movq	-32(%rbp), %rax
	movq	%rax, %rdi
	call	ecs_vector_count
	movl	%eax, -40(%rbp)
	cmpq	$0, -72(%rbp)
	je	.L177
	cmpl	$0, -40(%rbp)
	je	.L178
.L177:
	movl	$1, %eax
	jmp	.L179
.L178:
	movl	$0, %eax
.L179:
	andl	$1, %eax
	movzbl	%al, %eax
	movl	$0, %r9d
	movl	$2540, %r8d
	leaq	.LC74(%rip), %rcx
	leaq	.LC79(%rip), %rdx
	movl	$7, %esi
	movl	%eax, %edi
	movl	$0, %eax
	call	_ecs_assert
	cmpq	$0, -72(%rbp)
	je	.L180
	cmpl	$0, -40(%rbp)
	jne	.L180
	leaq	__PRETTY_FUNCTION__.7995(%rip), %rcx
	movl	$2540, %edx
	leaq	.LC74(%rip), %rsi
	leaq	.LC79(%rip), %rdi
	call	__assert_fail@PLT
.L180:
	cmpl	$0, -40(%rbp)
	je	.L188
	movq	-64(%rbp), %rax
	movq	32(%rax), %rax
	testq	%rax, %rax
	jne	.L182
	movq	32+ecs_os_api(%rip), %rax
	movl	-40(%rbp), %edx
	sall	$3, %edx
	movl	%edx, %edi
	call	*%rax
	movq	-64(%rbp), %rdx
	movq	%rax, 32(%rdx)
.L182:
	movq	-64(%rbp), %rax
	movl	16(%rax), %eax
	andl	$-385, %eax
	movl	%eax, %edx
	movq	-64(%rbp), %rax
	movl	%edx, 16(%rax)
	movq	-32(%rbp), %rax
	movl	$16, %edx
	movl	$8, %esi
	movq	%rax, %rdi
	call	_ecs_vector_first
	movq	%rax, -24(%rbp)
	movl	$0, -44(%rbp)
	jmp	.L183
.L187:
	movl	-44(%rbp), %eax
	cltq
	leaq	0(,%rax,8), %rdx
	movq	-24(%rbp), %rax
	addq	%rdx, %rax
	movq	(%rax), %rdx
	movq	-56(%rbp), %rax
	movq	%rdx, %rsi
	movq	%rax, %rdi
	call	ecs_get_typeid
	movq	%rax, -16(%rbp)
	cmpq	$0, -16(%rbp)
	je	.L189
	movq	-16(%rbp), %rdx
	movq	-56(%rbp), %rax
	movq	%rdx, %rsi
	movq	%rax, %rdi
	call	flecs_get_c_info
	movq	%rax, -8(%rbp)
	cmpq	$0, -8(%rbp)
	je	.L186
	movq	-8(%rbp), %rax
	movq	%rax, %rdi
	call	get_component_action_flags
	movl	%eax, -36(%rbp)
	movq	-64(%rbp), %rax
	movl	16(%rax), %eax
	orl	-36(%rbp), %eax
	movl	%eax, %edx
	movq	-64(%rbp), %rax
	movl	%edx, 16(%rax)
.L186:
	movq	-64(%rbp), %rax
	movq	32(%rax), %rax
	movl	-44(%rbp), %edx
	movslq	%edx, %rdx
	salq	$3, %rdx
	addq	%rax, %rdx
	movq	-8(%rbp), %rax
	movq	%rax, (%rdx)
	jmp	.L185
.L189:
	nop
.L185:
	addl	$1, -44(%rbp)
.L183:
	movl	-44(%rbp), %eax
	cmpl	-40(%rbp), %eax
	jl	.L187
	jmp	.L174
.L188:
	nop
.L174:
	leave
	.cfi_def_cfa 7, 8
	ret
	.cfi_endproc
.LFE25:
	.size	notify_component_info, .-notify_component_info
	.type	notify_trigger, @function
notify_trigger:
.LFB26:
	.cfi_startproc
	endbr64
	pushq	%rbp
	.cfi_def_cfa_offset 16
	.cfi_offset 6, -16
	movq	%rsp, %rbp
	.cfi_def_cfa_register 6
	movq	%rdi, -8(%rbp)
	movq	%rsi, -16(%rbp)
	movq	%rdx, -24(%rbp)
	movq	-16(%rbp), %rax
	movl	16(%rax), %eax
	andl	$64, %eax
	testl	%eax, %eax
	jne	.L195
	movl	$286, %eax
	cmpq	%rax, -24(%rbp)
	jne	.L192
	movq	-16(%rbp), %rax
	movl	16(%rax), %eax
	orb	$8, %ah
	movl	%eax, %edx
	movq	-16(%rbp), %rax
	movl	%edx, 16(%rax)
	jmp	.L195
.L192:
	movl	$287, %eax
	cmpq	%rax, -24(%rbp)
	jne	.L193
	movq	-16(%rbp), %rax
	movl	16(%rax), %eax
	orb	$16, %ah
	movl	%eax, %edx
	movq	-16(%rbp), %rax
	movl	%edx, 16(%rax)
	jmp	.L195
.L193:
	movl	$288, %eax
	cmpq	%rax, -24(%rbp)
	jne	.L194
	movq	-16(%rbp), %rax
	movl	16(%rax), %eax
	orb	$32, %ah
	movl	%eax, %edx
	movq	-16(%rbp), %rax
	movl	%edx, 16(%rax)
	jmp	.L195
.L194:
	movl	$289, %eax
	cmpq	%rax, -24(%rbp)
	jne	.L195
	movq	-16(%rbp), %rax
	movl	16(%rax), %eax
	orb	$64, %ah
	movl	%eax, %edx
	movq	-16(%rbp), %rax
	movl	%edx, 16(%rax)
.L195:
	nop
	popq	%rbp
	.cfi_def_cfa 7, 8
	ret
	.cfi_endproc
.LFE26:
	.size	notify_trigger, .-notify_trigger
	.type	run_on_remove, @function
run_on_remove:
.LFB27:
	.cfi_startproc
	endbr64
	pushq	%rbp
	.cfi_def_cfa_offset 16
	.cfi_offset 6, -16
	movq	%rsp, %rbp
	.cfi_def_cfa_register 6
	subq	$96, %rsp
	movq	%rdi, -72(%rbp)
	movq	%rsi, -80(%rbp)
	movq	%rdx, -88(%rbp)
	movq	%fs:40, %rax
	movq	%rax, -8(%rbp)
	xorl	%eax, %eax
	movq	-88(%rbp), %rax
	movq	(%rax), %rax
	movq	%rax, %rdi
	call	ecs_vector_count
	movl	%eax, -48(%rbp)
	cmpl	$0, -48(%rbp)
	je	.L201
	movq	-80(%rbp), %rax
	movq	96(%rax), %rdx
	movl	-48(%rbp), %ecx
	movq	-80(%rbp), %rsi
	movq	-72(%rbp), %rax
	movl	$0, %r9d
	movl	%ecx, %r8d
	movl	$0, %ecx
	movq	%rax, %rdi
	call	flecs_run_monitors
	movq	-80(%rbp), %rax
	movq	8(%rax), %rax
	movq	%rax, %rdi
	call	ecs_vector_count
	movl	%eax, -44(%rbp)
	movq	-80(%rbp), %rax
	movq	8(%rax), %rax
	movl	$16, %edx
	movl	$8, %esi
	movq	%rax, %rdi
	call	_ecs_vector_first
	movq	%rax, -40(%rbp)
	movl	$0, -52(%rbp)
	jmp	.L198
.L199:
	movl	-52(%rbp), %eax
	cltq
	leaq	0(,%rax,8), %rdx
	movq	-40(%rbp), %rax
	addq	%rdx, %rax
	movq	%rax, -32(%rbp)
	movl	$1, -24(%rbp)
	leaq	-32(%rbp), %rdi
	movl	-48(%rbp), %ecx
	movq	-88(%rbp), %rdx
	movq	-80(%rbp), %rsi
	movq	-72(%rbp), %rax
	movq	%rdi, %r9
	movl	%ecx, %r8d
	movl	$0, %ecx
	movq	%rax, %rdi
	call	flecs_run_remove_actions
	addl	$1, -52(%rbp)
.L198:
	movl	-52(%rbp), %eax
	cmpl	-44(%rbp), %eax
	jl	.L199
.L201:
	nop
	movq	-8(%rbp), %rax
	xorq	%fs:40, %rax
	je	.L200
	call	__stack_chk_fail@PLT
.L200:
	leave
	.cfi_def_cfa 7, 8
	ret
	.cfi_endproc
.LFE27:
	.size	run_on_remove, .-run_on_remove
	.section	.rodata
.LC80:
	.string	"q1 != NULL"
.LC81:
	.string	"q1 != ((void *)0)"
.LC82:
	.string	"q2 != NULL"
.LC83:
	.string	"q2 != ((void *)0)"
.LC84:
	.string	"s1 != 0"
.LC85:
	.string	"s2 != 0"
	.text
	.type	compare_matched_query, @function
compare_matched_query:
.LFB28:
	.cfi_startproc
	endbr64
	pushq	%rbp
	.cfi_def_cfa_offset 16
	.cfi_offset 6, -16
	movq	%rsp, %rbp
	.cfi_def_cfa_register 6
	subq	$64, %rsp
	movq	%rdi, -56(%rbp)
	movq	%rsi, -64(%rbp)
	movq	-56(%rbp), %rax
	movq	%rax, -48(%rbp)
	movq	-64(%rbp), %rax
	movq	%rax, -40(%rbp)
	movq	-48(%rbp), %rax
	movq	(%rax), %rax
	movq	%rax, -32(%rbp)
	movq	-40(%rbp), %rax
	movq	(%rax), %rax
	movq	%rax, -24(%rbp)
	cmpq	$0, -32(%rbp)
	setne	%al
	movzbl	%al, %eax
	movl	$0, %r9d
	movl	$2628, %r8d
	leaq	.LC74(%rip), %rcx
	leaq	.LC80(%rip), %rdx
	movl	$7, %esi
	movl	%eax, %edi
	movl	$0, %eax
	call	_ecs_assert
	cmpq	$0, -32(%rbp)
	jne	.L203
	leaq	__PRETTY_FUNCTION__.8031(%rip), %rcx
	movl	$2628, %edx
	leaq	.LC74(%rip), %rsi
	leaq	.LC81(%rip), %rdi
	call	__assert_fail@PLT
.L203:
	cmpq	$0, -24(%rbp)
	setne	%al
	movzbl	%al, %eax
	movl	$0, %r9d
	movl	$2629, %r8d
	leaq	.LC74(%rip), %rcx
	leaq	.LC82(%rip), %rdx
	movl	$7, %esi
	movl	%eax, %edi
	movl	$0, %eax
	call	_ecs_assert
	cmpq	$0, -24(%rbp)
	jne	.L204
	leaq	__PRETTY_FUNCTION__.8031(%rip), %rcx
	movl	$2629, %edx
	leaq	.LC74(%rip), %rsi
	leaq	.LC83(%rip), %rdi
	call	__assert_fail@PLT
.L204:
	movq	-32(%rbp), %rax
	movq	1632(%rax), %rax
	movq	%rax, -16(%rbp)
	movq	-24(%rbp), %rax
	movq	1632(%rax), %rax
	movq	%rax, -8(%rbp)
	cmpq	$0, -16(%rbp)
	setne	%al
	movzbl	%al, %eax
	movl	$0, %r9d
	movl	$2633, %r8d
	leaq	.LC74(%rip), %rcx
	leaq	.LC84(%rip), %rdx
	movl	$7, %esi
	movl	%eax, %edi
	movl	$0, %eax
	call	_ecs_assert
	cmpq	$0, -16(%rbp)
	jne	.L205
	leaq	__PRETTY_FUNCTION__.8031(%rip), %rcx
	movl	$2633, %edx
	leaq	.LC74(%rip), %rsi
	leaq	.LC84(%rip), %rdi
	call	__assert_fail@PLT
.L205:
	cmpq	$0, -8(%rbp)
	setne	%al
	movzbl	%al, %eax
	movl	$0, %r9d
	movl	$2634, %r8d
	leaq	.LC74(%rip), %rcx
	leaq	.LC85(%rip), %rdx
	movl	$7, %esi
	movl	%eax, %edi
	movl	$0, %eax
	call	_ecs_assert
	cmpq	$0, -8(%rbp)
	jne	.L206
	leaq	__PRETTY_FUNCTION__.8031(%rip), %rcx
	movl	$2634, %edx
	leaq	.LC74(%rip), %rsi
	leaq	.LC85(%rip), %rdi
	call	__assert_fail@PLT
.L206:
	movq	-16(%rbp), %rax
	cmpq	-8(%rbp), %rax
	seta	%al
	movzbl	%al, %edx
	movq	-16(%rbp), %rax
	cmpq	-8(%rbp), %rax
	setb	%al
	movzbl	%al, %eax
	subl	%eax, %edx
	movl	%edx, %eax
	leave
	.cfi_def_cfa 7, 8
	ret
	.cfi_endproc
.LFE28:
	.size	compare_matched_query, .-compare_matched_query
	.section	.rodata
.LC86:
	.string	"m != NULL"
.LC87:
	.string	"m != ((void *)0)"
	.text
	.type	add_monitor, @function
add_monitor:
.LFB29:
	.cfi_startproc
	endbr64
	pushq	%rbp
	.cfi_def_cfa_offset 16
	.cfi_offset 6, -16
	movq	%rsp, %rbp
	.cfi_def_cfa_register 6
	pushq	%rbx
	subq	$56, %rsp
	.cfi_offset 3, -24
	movq	%rdi, -40(%rbp)
	movq	%rsi, -48(%rbp)
	movl	%edx, -52(%rbp)
	movq	-40(%rbp), %rax
	movl	$16, %edx
	movl	$16, %esi
	movq	%rax, %rdi
	call	_ecs_vector_add
	movq	%rax, -24(%rbp)
	cmpq	$0, -24(%rbp)
	setne	%al
	movzbl	%al, %eax
	movl	$0, %r9d
	movl	$2649, %r8d
	leaq	.LC74(%rip), %rcx
	leaq	.LC86(%rip), %rdx
	movl	$7, %esi
	movl	%eax, %edi
	movl	$0, %eax
	call	_ecs_assert
	cmpq	$0, -24(%rbp)
	jne	.L209
	leaq	__PRETTY_FUNCTION__.8040(%rip), %rcx
	movl	$2649, %edx
	leaq	.LC74(%rip), %rsi
	leaq	.LC87(%rip), %rdi
	call	__assert_fail@PLT
.L209:
	movq	-24(%rbp), %rax
	movq	-48(%rbp), %rdx
	movq	%rdx, (%rax)
	movq	-24(%rbp), %rax
	movl	-52(%rbp), %edx
	movl	%edx, 8(%rax)
	movq	-40(%rbp), %rax
	movq	(%rax), %rax
	movq	%rax, %rdi
	call	ecs_vector_count
	cltq
	movq	%rax, %rdi
	call	flecs_to_size_t
	movq	%rax, %rbx
	movq	-40(%rbp), %rax
	movq	(%rax), %rax
	movl	$16, %edx
	movl	$16, %esi
	movq	%rax, %rdi
	call	_ecs_vector_first
	leaq	compare_matched_query(%rip), %rcx
	movl	$16, %edx
	movq	%rbx, %rsi
	movq	%rax, %rdi
	call	qsort@PLT
	nop
	addq	$56, %rsp
	popq	%rbx
	popq	%rbp
	.cfi_def_cfa 7, 8
	ret
	.cfi_endproc
.LFE29:
	.size	add_monitor, .-add_monitor
	.section	.rodata
.LC88:
	.string	"query != NULL"
.LC89:
	.string	"query != ((void *)0)"
	.align 8
.LC90:
	.string	"monitor #[green]%s#[reset] registered with table #[red]%s"
	.text
	.type	register_monitor, @function
register_monitor:
.LFB30:
	.cfi_startproc
	endbr64
	pushq	%rbp
	.cfi_def_cfa_offset 16
	.cfi_offset 6, -16
	movq	%rsp, %rbp
	.cfi_def_cfa_register 6
	subq	$64, %rsp
	movq	%rdi, -40(%rbp)
	movq	%rsi, -48(%rbp)
	movq	%rdx, -56(%rbp)
	movl	%ecx, -60(%rbp)
	cmpq	$0, -56(%rbp)
	setne	%al
	movzbl	%al, %eax
	movl	$0, %r9d
	movl	$2674, %r8d
	leaq	.LC74(%rip), %rcx
	leaq	.LC88(%rip), %rdx
	movl	$7, %esi
	movl	%eax, %edi
	movl	$0, %eax
	call	_ecs_assert
	cmpq	$0, -56(%rbp)
	jne	.L211
	leaq	__PRETTY_FUNCTION__.8047(%rip), %rcx
	movl	$2674, %edx
	leaq	.LC74(%rip), %rsi
	leaq	.LC89(%rip), %rdi
	call	__assert_fail@PLT
.L211:
	movq	-48(%rbp), %rax
	movq	64(%rax), %rax
	movq	%rax, %rdi
	call	ecs_vector_count
	movl	%eax, -28(%rbp)
	movq	-48(%rbp), %rax
	movq	64(%rax), %rax
	movl	$16, %edx
	movl	$16, %esi
	movq	%rax, %rdi
	call	_ecs_vector_first
	movq	%rax, -24(%rbp)
	movl	$0, -32(%rbp)
	jmp	.L212
.L215:
	movl	-32(%rbp), %eax
	cltq
	salq	$4, %rax
	movq	%rax, %rdx
	movq	-24(%rbp), %rax
	addq	%rdx, %rax
	movq	%rax, -8(%rbp)
	movq	-8(%rbp), %rax
	movq	(%rax), %rax
	cmpq	%rax, -56(%rbp)
	jne	.L213
	movq	-8(%rbp), %rax
	movl	-60(%rbp), %edx
	movl	%edx, 8(%rax)
	jmp	.L210
.L213:
	addl	$1, -32(%rbp)
.L212:
	movl	-32(%rbp), %eax
	cmpl	-28(%rbp), %eax
	jl	.L215
	movq	-48(%rbp), %rax
	leaq	64(%rax), %rcx
	movl	-60(%rbp), %edx
	movq	-56(%rbp), %rax
	movq	%rax, %rsi
	movq	%rcx, %rdi
	call	add_monitor
	movq	-48(%rbp), %rax
	movq	8(%rax), %rdx
	movq	-40(%rbp), %rax
	movq	%rdx, %rsi
	movq	%rax, %rdi
	call	ecs_type_str
	movq	%rax, -16(%rbp)
	movq	-56(%rbp), %rax
	movq	1632(%rax), %rdx
	movq	-40(%rbp), %rax
	movq	%rdx, %rsi
	movq	%rax, %rdi
	call	ecs_get_name
	movq	-16(%rbp), %rdx
	movq	%rdx, %r9
	movq	%rax, %r8
	leaq	.LC90(%rip), %rcx
	movl	$2690, %edx
	leaq	.LC74(%rip), %rsi
	movl	$2, %edi
	movl	$0, %eax
	call	_ecs_trace
	movq	40+ecs_os_api(%rip), %rdx
	movq	-16(%rbp), %rax
	movq	%rax, %rdi
	call	*%rdx
.L210:
	leave
	.cfi_def_cfa 7, 8
	ret
	.cfi_endproc
.LFE30:
	.size	register_monitor, .-register_monitor
	.type	is_override, @function
is_override:
.LFB31:
	.cfi_startproc
	endbr64
	pushq	%rbp
	.cfi_def_cfa_offset 16
	.cfi_offset 6, -16
	movq	%rsp, %rbp
	.cfi_def_cfa_register 6
	subq	$64, %rsp
	movq	%rdi, -40(%rbp)
	movq	%rsi, -48(%rbp)
	movq	%rdx, -56(%rbp)
	movq	-48(%rbp), %rax
	movl	16(%rax), %eax
	andl	$4, %eax
	testl	%eax, %eax
	jne	.L217
	movl	$0, %eax
	jmp	.L218
.L217:
	movq	-48(%rbp), %rax
	movq	8(%rax), %rax
	movq	%rax, -24(%rbp)
	movq	-24(%rbp), %rax
	movq	%rax, %rdi
	call	ecs_vector_count
	movl	%eax, -28(%rbp)
	movq	-24(%rbp), %rax
	movl	$16, %edx
	movl	$8, %esi
	movq	%rax, %rdi
	call	_ecs_vector_first
	movq	%rax, -16(%rbp)
	movl	-28(%rbp), %eax
	subl	$1, %eax
	movl	%eax, -32(%rbp)
	jmp	.L219
.L221:
	movl	-32(%rbp), %eax
	cltq
	leaq	0(,%rax,8), %rdx
	movq	-16(%rbp), %rax
	addq	%rdx, %rax
	movq	(%rax), %rax
	movq	%rax, -8(%rbp)
	movabsq	$-72057594037927936, %rax
	andq	-8(%rbp), %rax
	movabsq	$-432345564227567616, %rdx
	cmpq	%rdx, %rax
	jne	.L220
	movq	-8(%rbp), %rax
	shrq	$32, %rax
	movl	%eax, %eax
	andl	$16777215, %eax
	movl	$277, %edx
	cmpq	%rdx, %rax
	jne	.L220
	movq	-8(%rbp), %rax
	movl	%eax, %ecx
	movq	-56(%rbp), %rdx
	movq	-40(%rbp), %rax
	movq	%rcx, %rsi
	movq	%rax, %rdi
	call	ecs_has_id
	testb	%al, %al
	je	.L220
	movl	$1, %eax
	jmp	.L218
.L220:
	subl	$1, -32(%rbp)
.L219:
	cmpl	$0, -32(%rbp)
	jns	.L221
	movl	$0, %eax
.L218:
	leave
	.cfi_def_cfa 7, 8
	ret
	.cfi_endproc
.LFE31:
	.size	is_override, .-is_override
	.type	register_on_set, @function
register_on_set:
.LFB32:
	.cfi_startproc
	endbr64
	pushq	%rbp
	.cfi_def_cfa_offset 16
	.cfi_offset 6, -16
	movq	%rsp, %rbp
	.cfi_def_cfa_register 6
	addq	$-128, %rsp
	movq	%rdi, -104(%rbp)
	movq	%rsi, -112(%rbp)
	movq	%rdx, -120(%rbp)
	movl	%ecx, -124(%rbp)
	movq	%fs:40, %rax
	movq	%rax, -8(%rbp)
	xorl	%eax, %eax
	movq	-112(%rbp), %rax
	movl	20(%rax), %eax
	testl	%eax, %eax
	je	.L223
	movq	-112(%rbp), %rax
	movq	72(%rax), %rax
	testq	%rax, %rax
	jne	.L224
	movq	32+ecs_os_api(%rip), %rax
	movq	-112(%rbp), %rdx
	movl	20(%rdx), %edx
	sall	$4, %edx
	movl	%edx, %edi
	call	*%rax
	movq	-112(%rbp), %rdx
	movq	%rax, 72(%rdx)
.L224:
	movq	-120(%rbp), %rax
	movq	1608(%rax), %rax
	movl	-124(%rbp), %edx
	movl	%edx, %ecx
	movl	$16, %edx
	movl	$96, %esi
	movq	%rax, %rdi
	call	_ecs_vector_get
	movq	%rax, -56(%rbp)
	movb	$0, -81(%rbp)
	movq	-120(%rbp), %rax
	movq	(%rax), %rax
	movq	%rax, -48(%rbp)
	movq	-120(%rbp), %rax
	movl	8(%rax), %eax
	movl	%eax, -76(%rbp)
	movl	$0, -80(%rbp)
	jmp	.L225
.L233:
	movl	-80(%rbp), %eax
	movslq	%eax, %rdx
	movq	%rdx, %rax
	addq	%rax, %rax
	addq	%rdx, %rax
	salq	$6, %rax
	movq	%rax, %rdx
	movq	-48(%rbp), %rax
	addq	%rdx, %rax
	movq	%rax, -40(%rbp)
	movq	-40(%rbp), %rax
	addq	$64, %rax
	movq	%rax, -32(%rbp)
	movq	-40(%rbp), %rax
	movl	160(%rax), %eax
	movl	%eax, -72(%rbp)
	movq	-32(%rbp), %rax
	movzbl	32(%rax), %eax
	movzbl	%al, %eax
	andl	$1, %eax
	testl	%eax, %eax
	je	.L235
	movq	-32(%rbp), %rax
	movq	(%rax), %rax
	testq	%rax, %rax
	je	.L235
	movq	-32(%rbp), %rax
	movq	(%rax), %rax
	movl	$267, %edx
	cmpq	%rdx, %rax
	jne	.L235
	cmpl	$0, -72(%rbp)
	je	.L229
	cmpl	$3, -72(%rbp)
	jne	.L236
.L229:
	movq	-56(%rbp), %rax
	movq	24(%rax), %rax
	movl	-80(%rbp), %edx
	movslq	%edx, %rdx
	salq	$3, %rdx
	addq	%rdx, %rax
	movq	(%rax), %rax
	movq	%rax, -24(%rbp)
	movq	-112(%rbp), %rax
	movq	8(%rax), %rax
	movq	-24(%rbp), %rdx
	movl	$0, %esi
	movq	%rax, %rdi
	call	ecs_type_index_of
	movl	%eax, -68(%rbp)
	cmpl	$-1, -68(%rbp)
	je	.L237
	movq	-112(%rbp), %rax
	movl	20(%rax), %eax
	cmpl	%eax, -68(%rbp)
	jge	.L238
	movq	-112(%rbp), %rax
	movq	72(%rax), %rax
	movl	-68(%rbp), %edx
	movslq	%edx, %rdx
	salq	$3, %rdx
	addq	%rdx, %rax
	movq	(%rax), %rax
	movq	%rax, -64(%rbp)
	leaq	-64(%rbp), %rax
	movl	$16, %edx
	movl	$16, %esi
	movq	%rax, %rdi
	call	_ecs_vector_add
	movq	%rax, -16(%rbp)
	movq	-16(%rbp), %rax
	movq	-120(%rbp), %rdx
	movq	%rdx, (%rax)
	movq	-16(%rbp), %rax
	movl	-124(%rbp), %edx
	movl	%edx, 8(%rax)
	movq	-112(%rbp), %rax
	movq	72(%rax), %rax
	movl	-68(%rbp), %edx
	movslq	%edx, %rdx
	salq	$3, %rdx
	addq	%rax, %rdx
	movq	-64(%rbp), %rax
	movq	%rax, (%rdx)
	movq	-24(%rbp), %rdx
	movq	-112(%rbp), %rcx
	movq	-104(%rbp), %rax
	movq	%rcx, %rsi
	movq	%rax, %rdi
	call	is_override
	orb	-81(%rbp), %al
	movzbl	%al, %eax
	testl	%eax, %eax
	setne	%al
	movb	%al, -81(%rbp)
	jmp	.L232
.L235:
	nop
	jmp	.L232
.L236:
	nop
	jmp	.L232
.L237:
	nop
	jmp	.L232
.L238:
	nop
.L232:
	addl	$1, -80(%rbp)
.L225:
	movl	-80(%rbp), %eax
	cmpl	-76(%rbp), %eax
	jl	.L233
	cmpb	$0, -81(%rbp)
	je	.L223
	movq	-112(%rbp), %rax
	leaq	88(%rax), %rcx
	movl	-124(%rbp), %edx
	movq	-120(%rbp), %rax
	movq	%rax, %rsi
	movq	%rcx, %rdi
	call	add_monitor
.L223:
	movq	-112(%rbp), %rax
	leaq	80(%rax), %rcx
	movl	-124(%rbp), %edx
	movq	-120(%rbp), %rax
	movq	%rax, %rsi
	movq	%rcx, %rdi
	call	add_monitor
	nop
	movq	-8(%rbp), %rax
	xorq	%fs:40, %rax
	je	.L234
	call	__stack_chk_fail@PLT
.L234:
	leave
	.cfi_def_cfa 7, 8
	ret
	.cfi_endproc
.LFE32:
	.size	register_on_set, .-register_on_set
	.type	register_un_set, @function
register_un_set:
.LFB33:
	.cfi_startproc
	endbr64
	pushq	%rbp
	.cfi_def_cfa_offset 16
	.cfi_offset 6, -16
	movq	%rsp, %rbp
	.cfi_def_cfa_register 6
	subq	$32, %rsp
	movq	%rdi, -8(%rbp)
	movq	%rsi, -16(%rbp)
	movq	%rdx, -24(%rbp)
	movl	%ecx, -28(%rbp)
	movq	-16(%rbp), %rax
	movl	16(%rax), %eax
	orb	$64, %ah
	movl	%eax, %edx
	movq	-16(%rbp), %rax
	movl	%edx, 16(%rax)
	movq	-16(%rbp), %rax
	leaq	96(%rax), %rcx
	movl	-28(%rbp), %edx
	movq	-24(%rbp), %rax
	movq	%rax, %rsi
	movq	%rcx, %rdi
	call	add_monitor
	nop
	leave
	.cfi_def_cfa 7, 8
	ret
	.cfi_endproc
.LFE33:
	.size	register_un_set, .-register_un_set
	.type	table_activate, @function
table_activate:
.LFB34:
	.cfi_startproc
	endbr64
	pushq	%rbp
	.cfi_def_cfa_offset 16
	.cfi_offset 6, -16
	movq	%rsp, %rbp
	.cfi_def_cfa_register 6
	subq	$96, %rsp
	movq	%rdi, -72(%rbp)
	movq	%rsi, -80(%rbp)
	movq	%rdx, -88(%rbp)
	movl	%ecx, %eax
	movb	%al, -92(%rbp)
	movq	%fs:40, %rax
	movq	%rax, -8(%rbp)
	xorl	%eax, %eax
	cmpq	$0, -88(%rbp)
	je	.L241
	movq	$0, -32(%rbp)
	movq	$0, -24(%rbp)
	movq	$0, -16(%rbp)
	cmpb	$0, -92(%rbp)
	je	.L242
	movl	$2, %eax
	jmp	.L243
.L242:
	movl	$1, %eax
.L243:
	movl	%eax, -32(%rbp)
	movq	-80(%rbp), %rax
	movq	%rax, -24(%rbp)
	leaq	-32(%rbp), %rdx
	movq	-88(%rbp), %rcx
	movq	-72(%rbp), %rax
	movq	%rcx, %rsi
	movq	%rax, %rdi
	call	flecs_query_notify
	jmp	.L250
.L241:
	movq	-80(%rbp), %rax
	movq	56(%rax), %rax
	movq	%rax, -48(%rbp)
	movq	-48(%rbp), %rax
	movl	$16, %edx
	movl	$8, %esi
	movq	%rax, %rdi
	call	_ecs_vector_first
	movq	%rax, -40(%rbp)
	movq	-48(%rbp), %rax
	movq	%rax, %rdi
	call	ecs_vector_count
	movl	%eax, -52(%rbp)
	movl	$0, -56(%rbp)
	jmp	.L245
.L248:
	movq	$0, -32(%rbp)
	movq	$0, -24(%rbp)
	movq	$0, -16(%rbp)
	cmpb	$0, -92(%rbp)
	je	.L246
	movl	$2, %eax
	jmp	.L247
.L246:
	movl	$1, %eax
.L247:
	movl	%eax, -32(%rbp)
	movq	-80(%rbp), %rax
	movq	%rax, -24(%rbp)
	movl	-56(%rbp), %eax
	cltq
	leaq	0(,%rax,8), %rdx
	movq	-40(%rbp), %rax
	addq	%rdx, %rax
	movq	(%rax), %rcx
	leaq	-32(%rbp), %rdx
	movq	-72(%rbp), %rax
	movq	%rcx, %rsi
	movq	%rax, %rdi
	call	flecs_query_notify
	addl	$1, -56(%rbp)
.L245:
	movl	-56(%rbp), %eax
	cmpl	-52(%rbp), %eax
	jl	.L248
.L250:
	nop
	movq	-8(%rbp), %rax
	xorq	%fs:40, %rax
	je	.L249
	call	__stack_chk_fail@PLT
.L249:
	leave
	.cfi_def_cfa 7, 8
	ret
	.cfi_endproc
.LFE34:
	.size	table_activate, .-table_activate
	.section	.rodata
.LC91:
	.string	"*q != query"
	.text
	.type	register_query, @function
register_query:
.LFB35:
	.cfi_startproc
	endbr64
	pushq	%rbp
	.cfi_def_cfa_offset 16
	.cfi_offset 6, -16
	movq	%rsp, %rbp
	.cfi_def_cfa_register 6
	subq	$64, %rsp
	movq	%rdi, -40(%rbp)
	movq	%rsi, -48(%rbp)
	movq	%rdx, -56(%rbp)
	movl	%ecx, -60(%rbp)
	movq	-56(%rbp), %rax
	movl	1712(%rax), %eax
	andl	$14, %eax
	testl	%eax, %eax
	jne	.L252
	movq	-48(%rbp), %rax
	movq	56(%rax), %rax
	movq	%rax, %rdi
	call	ecs_vector_count
	movl	%eax, -28(%rbp)
	movl	$0, -32(%rbp)
	jmp	.L253
.L255:
	movq	-48(%rbp), %rax
	movq	56(%rax), %rax
	movl	-32(%rbp), %edx
	movl	%edx, %ecx
	movl	$16, %edx
	movl	$8, %esi
	movq	%rax, %rdi
	call	_ecs_vector_get
	movq	%rax, -8(%rbp)
	movq	-8(%rbp), %rax
	movq	(%rax), %rax
	cmpq	%rax, -56(%rbp)
	setne	%al
	movzbl	%al, %eax
	movl	$0, %r9d
	movl	$2854, %r8d
	leaq	.LC74(%rip), %rcx
	leaq	.LC91(%rip), %rdx
	movl	$7, %esi
	movl	%eax, %edi
	movl	$0, %eax
	call	_ecs_assert
	movq	-8(%rbp), %rax
	movq	(%rax), %rax
	cmpq	%rax, -56(%rbp)
	jne	.L254
	leaq	__PRETTY_FUNCTION__.8121(%rip), %rcx
	movl	$2854, %edx
	leaq	.LC74(%rip), %rsi
	leaq	.LC91(%rip), %rdi
	call	__assert_fail@PLT
.L254:
	addl	$1, -32(%rbp)
.L253:
	movl	-32(%rbp), %eax
	cmpl	-28(%rbp), %eax
	jl	.L255
	movq	-48(%rbp), %rax
	addq	$56, %rax
	movl	$16, %edx
	movl	$8, %esi
	movq	%rax, %rdi
	call	_ecs_vector_add
	movq	%rax, -24(%rbp)
	cmpq	$0, -24(%rbp)
	je	.L256
	movq	-24(%rbp), %rax
	movq	-56(%rbp), %rdx
	movq	%rdx, (%rax)
.L256:
	movq	-48(%rbp), %rax
	movq	%rax, %rdi
	call	flecs_table_get_data
	movq	%rax, -16(%rbp)
	cmpq	$0, -16(%rbp)
	je	.L252
	movq	-16(%rbp), %rax
	movq	(%rax), %rax
	movq	%rax, %rdi
	call	ecs_vector_count
	testl	%eax, %eax
	je	.L252
	movq	-56(%rbp), %rdx
	movq	-48(%rbp), %rsi
	movq	-40(%rbp), %rax
	movl	$1, %ecx
	movq	%rax, %rdi
	call	table_activate
.L252:
	movq	-56(%rbp), %rax
	movl	1712(%rax), %eax
	andl	$2, %eax
	testl	%eax, %eax
	je	.L257
	movq	-48(%rbp), %rax
	movl	16(%rax), %eax
	orb	$-128, %ah
	movl	%eax, %edx
	movq	-48(%rbp), %rax
	movl	%edx, 16(%rax)
	movl	-60(%rbp), %ecx
	movq	-56(%rbp), %rdx
	movq	-48(%rbp), %rsi
	movq	-40(%rbp), %rax
	movq	%rax, %rdi
	call	register_monitor
.L257:
	movq	-56(%rbp), %rax
	movl	1712(%rax), %eax
	andl	$4, %eax
	testl	%eax, %eax
	je	.L258
	movl	-60(%rbp), %ecx
	movq	-56(%rbp), %rdx
	movq	-48(%rbp), %rsi
	movq	-40(%rbp), %rax
	movq	%rax, %rdi
	call	register_on_set
.L258:
	movq	-56(%rbp), %rax
	movl	1712(%rax), %eax
	andl	$8, %eax
	testl	%eax, %eax
	je	.L260
	movl	-60(%rbp), %ecx
	movq	-56(%rbp), %rdx
	movq	-48(%rbp), %rsi
	movq	-40(%rbp), %rax
	movq	%rax, %rdi
	call	register_un_set
.L260:
	nop
	leave
	.cfi_def_cfa 7, 8
	ret
	.cfi_endproc
.LFE35:
	.size	register_query, .-register_query
	.section	.rodata
.LC92:
	.string	"i != count"
	.text
	.type	unregister_query, @function
unregister_query:
.LFB36:
	.cfi_startproc
	endbr64
	pushq	%rbp
	.cfi_def_cfa_offset 16
	.cfi_offset 6, -16
	movq	%rsp, %rbp
	.cfi_def_cfa_register 6
	subq	$48, %rsp
	movq	%rdi, -24(%rbp)
	movq	%rsi, -32(%rbp)
	movq	%rdx, -40(%rbp)
	movq	-40(%rbp), %rax
	movl	1712(%rax), %eax
	andl	$14, %eax
	testl	%eax, %eax
	jne	.L268
	movq	-32(%rbp), %rax
	movq	56(%rax), %rax
	movq	%rax, %rdi
	call	ecs_vector_count
	movl	%eax, -12(%rbp)
	movl	$0, -16(%rbp)
	jmp	.L263
.L266:
	movq	-32(%rbp), %rax
	movq	56(%rax), %rax
	movl	-16(%rbp), %edx
	movl	%edx, %ecx
	movl	$16, %edx
	movl	$8, %esi
	movq	%rax, %rdi
	call	_ecs_vector_get
	movq	%rax, -8(%rbp)
	movq	-8(%rbp), %rax
	movq	(%rax), %rax
	cmpq	%rax, -40(%rbp)
	je	.L269
	addl	$1, -16(%rbp)
.L263:
	movl	-16(%rbp), %eax
	cmpl	-12(%rbp), %eax
	jl	.L266
	jmp	.L265
.L269:
	nop
.L265:
	movl	-16(%rbp), %eax
	cmpl	-12(%rbp), %eax
	setne	%al
	movzbl	%al, %eax
	movl	$0, %r9d
	movl	$2905, %r8d
	leaq	.LC74(%rip), %rcx
	leaq	.LC92(%rip), %rdx
	movl	$7, %esi
	movl	%eax, %edi
	movl	$0, %eax
	call	_ecs_assert
	movl	-16(%rbp), %eax
	cmpl	-12(%rbp), %eax
	jne	.L267
	leaq	__PRETTY_FUNCTION__.8138(%rip), %rcx
	movl	$2905, %edx
	leaq	.LC74(%rip), %rsi
	leaq	.LC92(%rip), %rdi
	call	__assert_fail@PLT
.L267:
	movq	-32(%rbp), %rax
	movq	56(%rax), %rax
	movl	-16(%rbp), %edx
	movl	%edx, %ecx
	movl	$16, %edx
	movl	$8, %esi
	movq	%rax, %rdi
	call	_ecs_vector_remove
.L268:
	nop
	leave
	.cfi_def_cfa 7, 8
	ret
	.cfi_endproc
.LFE36:
	.size	unregister_query, .-unregister_query
	.section	.rodata
.LC93:
	.string	"table != NULL"
.LC94:
	.string	"table != ((void *)0)"
	.text
	.globl	flecs_table_get_data
	.type	flecs_table_get_data, @function
flecs_table_get_data:
.LFB37:
	.cfi_startproc
	endbr64
	pushq	%rbp
	.cfi_def_cfa_offset 16
	.cfi_offset 6, -16
	movq	%rsp, %rbp
	.cfi_def_cfa_register 6
	subq	$16, %rsp
	movq	%rdi, -8(%rbp)
	cmpq	$0, -8(%rbp)
	setne	%al
	movzbl	%al, %eax
	movl	$0, %r9d
	movl	$2915, %r8d
	leaq	.LC74(%rip), %rcx
	leaq	.LC93(%rip), %rdx
	movl	$7, %esi
	movl	%eax, %edi
	movl	$0, %eax
	call	_ecs_assert
	cmpq	$0, -8(%rbp)
	jne	.L271
	leaq	__PRETTY_FUNCTION__.8142(%rip), %rcx
	movl	$2915, %edx
	leaq	.LC74(%rip), %rsi
	leaq	.LC94(%rip), %rdi
	call	__assert_fail@PLT
.L271:
	movq	-8(%rbp), %rax
	movq	24(%rax), %rax
	leave
	.cfi_def_cfa 7, 8
	ret
	.cfi_endproc
.LFE37:
	.size	flecs_table_get_data, .-flecs_table_get_data
	.section	.rodata
.LC95:
	.string	"!table->lock"
	.text
	.globl	flecs_table_get_or_create_data
	.type	flecs_table_get_or_create_data, @function
flecs_table_get_or_create_data:
.LFB38:
	.cfi_startproc
	endbr64
	pushq	%rbp
	.cfi_def_cfa_offset 16
	.cfi_offset 6, -16
	movq	%rsp, %rbp
	.cfi_def_cfa_register 6
	subq	$32, %rsp
	movq	%rdi, -24(%rbp)
	cmpq	$0, -24(%rbp)
	setne	%al
	movzbl	%al, %eax
	movl	$0, %r9d
	movl	$2923, %r8d
	leaq	.LC74(%rip), %rcx
	leaq	.LC93(%rip), %rdx
	movl	$7, %esi
	movl	%eax, %edi
	movl	$0, %eax
	call	_ecs_assert
	cmpq	$0, -24(%rbp)
	jne	.L274
	leaq	__PRETTY_FUNCTION__.8146(%rip), %rcx
	movl	$2923, %edx
	leaq	.LC74(%rip), %rsi
	leaq	.LC94(%rip), %rdi
	call	__assert_fail@PLT
.L274:
	movq	-24(%rbp), %rax
	movl	132(%rax), %eax
	testl	%eax, %eax
	sete	%al
	movzbl	%al, %eax
	movl	$0, %r9d
	movl	$2924, %r8d
	leaq	.LC74(%rip), %rcx
	leaq	.LC95(%rip), %rdx
	movl	$71, %esi
	movl	%eax, %edi
	movl	$0, %eax
	call	_ecs_assert
	movq	-24(%rbp), %rax
	movl	132(%rax), %eax
	testl	%eax, %eax
	je	.L275
	leaq	__PRETTY_FUNCTION__.8146(%rip), %rcx
	movl	$2924, %edx
	leaq	.LC74(%rip), %rsi
	leaq	.LC95(%rip), %rdi
	call	__assert_fail@PLT
.L275:
	movq	-24(%rbp), %rax
	movq	24(%rax), %rax
	movq	%rax, -8(%rbp)
	cmpq	$0, -8(%rbp)
	jne	.L276
	movq	32+ecs_os_api(%rip), %rax
	movl	$40, %edi
	call	*%rax
	movq	-24(%rbp), %rdx
	movq	%rax, 24(%rdx)
	movq	-24(%rbp), %rax
	movq	24(%rax), %rax
	movq	%rax, -8(%rbp)
.L276:
	movq	-8(%rbp), %rax
	leave
	.cfi_def_cfa 7, 8
	ret
	.cfi_endproc
.LFE38:
	.size	flecs_table_get_or_create_data, .-flecs_table_get_or_create_data
	.type	ctor_component, @function
ctor_component:
.LFB39:
	.cfi_startproc
	endbr64
	pushq	%rbp
	.cfi_def_cfa_offset 16
	.cfi_offset 6, -16
	movq	%rsp, %rbp
	.cfi_def_cfa_register 6
	subq	$80, %rsp
	movq	%rdi, -40(%rbp)
	movq	%rsi, -48(%rbp)
	movq	%rdx, -56(%rbp)
	movq	%rcx, -64(%rbp)
	movl	%r8d, -68(%rbp)
	movl	%r9d, -72(%rbp)
	cmpq	$0, -48(%rbp)
	je	.L280
	movq	-48(%rbp), %rax
	movq	(%rax), %rax
	movq	%rax, -24(%rbp)
	cmpq	$0, -24(%rbp)
	je	.L280
	movq	-48(%rbp), %rax
	movq	32(%rax), %rax
	movq	%rax, -16(%rbp)
	movq	-56(%rbp), %rax
	movzwl	8(%rax), %eax
	movw	%ax, -28(%rbp)
	movq	-56(%rbp), %rax
	movzwl	10(%rax), %eax
	movw	%ax, -26(%rbp)
	movl	$16, %eax
	cmpw	$16, -26(%rbp)
	cmovge	-26(%rbp), %ax
	movswl	%ax, %edx
	movswl	-28(%rbp), %esi
	movq	-56(%rbp), %rax
	movq	(%rax), %rax
	movl	-68(%rbp), %ecx
	movq	%rax, %rdi
	call	_ecs_vector_get
	movq	%rax, -8(%rbp)
	movswq	-28(%rbp), %rax
	movq	%rax, %rdi
	call	flecs_to_size_t
	movq	%rax, %rdi
	movq	-48(%rbp), %rax
	movq	80(%rax), %rsi
	movl	-72(%rbp), %r8d
	movq	-8(%rbp), %rcx
	movq	-64(%rbp), %rdx
	movq	-40(%rbp), %rax
	subq	$8, %rsp
	pushq	-16(%rbp)
	movq	-24(%rbp), %r10
	movl	%r8d, %r9d
	movq	%rdi, %r8
	movq	%rax, %rdi
	call	*%r10
	addq	$16, %rsp
.L280:
	nop
	leave
	.cfi_def_cfa 7, 8
	ret
	.cfi_endproc
.LFE39:
	.size	ctor_component, .-ctor_component
	.section	.rodata
.LC96:
	.string	"column->data != NULL"
.LC97:
	.string	"column->data != ((void *)0)"
.LC98:
	.string	"ptr != NULL"
.LC99:
	.string	"ptr != ((void *)0)"
	.text
	.type	dtor_component, @function
dtor_component:
.LFB40:
	.cfi_startproc
	endbr64
	pushq	%rbp
	.cfi_def_cfa_offset 16
	.cfi_offset 6, -16
	movq	%rsp, %rbp
	.cfi_def_cfa_register 6
	subq	$80, %rsp
	movq	%rdi, -40(%rbp)
	movq	%rsi, -48(%rbp)
	movq	%rdx, -56(%rbp)
	movq	%rcx, -64(%rbp)
	movl	%r8d, -68(%rbp)
	movl	%r9d, -72(%rbp)
	cmpl	$0, -72(%rbp)
	je	.L286
	cmpq	$0, -48(%rbp)
	je	.L281
	movq	-48(%rbp), %rax
	movq	8(%rax), %rax
	movq	%rax, -24(%rbp)
	cmpq	$0, -24(%rbp)
	je	.L281
	movq	-48(%rbp), %rax
	movq	32(%rax), %rax
	movq	%rax, -16(%rbp)
	movq	-56(%rbp), %rax
	movzwl	8(%rax), %eax
	movw	%ax, -28(%rbp)
	movq	-56(%rbp), %rax
	movzwl	10(%rax), %eax
	movw	%ax, -26(%rbp)
	movq	-56(%rbp), %rax
	movq	(%rax), %rax
	testq	%rax, %rax
	setne	%al
	movzbl	%al, %eax
	movl	$0, %r9d
	movl	$2976, %r8d
	leaq	.LC74(%rip), %rcx
	leaq	.LC96(%rip), %rdx
	movl	$7, %esi
	movl	%eax, %edi
	movl	$0, %eax
	call	_ecs_assert
	movq	-56(%rbp), %rax
	movq	(%rax), %rax
	testq	%rax, %rax
	jne	.L284
	leaq	__PRETTY_FUNCTION__.8173(%rip), %rcx
	movl	$2976, %edx
	leaq	.LC74(%rip), %rsi
	leaq	.LC97(%rip), %rdi
	call	__assert_fail@PLT
.L284:
	movl	$16, %eax
	cmpw	$16, -26(%rbp)
	cmovge	-26(%rbp), %ax
	movswl	%ax, %edx
	movswl	-28(%rbp), %esi
	movq	-56(%rbp), %rax
	movq	(%rax), %rax
	movl	-68(%rbp), %ecx
	movq	%rax, %rdi
	call	_ecs_vector_get
	movq	%rax, -8(%rbp)
	cmpq	$0, -8(%rbp)
	setne	%al
	movzbl	%al, %eax
	movl	$0, %r9d
	movl	$2978, %r8d
	leaq	.LC74(%rip), %rcx
	leaq	.LC98(%rip), %rdx
	movl	$7, %esi
	movl	%eax, %edi
	movl	$0, %eax
	call	_ecs_assert
	cmpq	$0, -8(%rbp)
	jne	.L285
	leaq	__PRETTY_FUNCTION__.8173(%rip), %rcx
	movl	$2978, %edx
	leaq	.LC74(%rip), %rsi
	leaq	.LC99(%rip), %rdi
	call	__assert_fail@PLT
.L285:
	movswq	-28(%rbp), %rax
	movq	%rax, %rdi
	call	flecs_to_size_t
	movq	%rax, %rcx
	movl	-68(%rbp), %eax
	cltq
	leaq	0(,%rax,8), %rdx
	movq	-64(%rbp), %rax
	leaq	(%rdx,%rax), %rdi
	movq	-48(%rbp), %rax
	movq	80(%rax), %rsi
	movl	-72(%rbp), %r8d
	movq	-8(%rbp), %rdx
	movq	-40(%rbp), %rax
	subq	$8, %rsp
	pushq	-16(%rbp)
	movq	-24(%rbp), %r10
	movl	%r8d, %r9d
	movq	%rcx, %r8
	movq	%rdx, %rcx
	movq	%rdi, %rdx
	movq	%rax, %rdi
	call	*%r10
	addq	$16, %rsp
	jmp	.L281
.L286:
	nop
.L281:
	leave
	.cfi_def_cfa 7, 8
	ret
	.cfi_endproc
.LFE40:
	.size	dtor_component, .-dtor_component
	.section	.rodata
	.align 8
.LC100:
	.string	"!is_delete || update_entity_index"
.LC101:
	.string	"!e || ecs_is_valid(world, e)"
	.align 8
.LC102:
	.string	"!e || records[i] == ecs_eis_get(world, e)"
	.align 8
.LC103:
	.string	"!e || records[i] == ((ecs_record_t*)_flecs_sparse_get((world->store).entity_index, sizeof(ecs_record_t), e))"
	.align 8
.LC104:
	.string	"!e || records[i]->table == table"
	.align 8
.LC105:
	.string	"ecs_is_valid(world, e) == false"
.LC106:
	.string	"ecs_is_valid(world, e) == 0"
.LC107:
	.string	"!ecs_is_valid(world, e)"
	.text
	.type	dtor_all_components, @function
dtor_all_components:
.LFB41:
	.cfi_startproc
	endbr64
	pushq	%rbp
	.cfi_def_cfa_offset 16
	.cfi_offset 6, -16
	movq	%rsp, %rbp
	.cfi_def_cfa_register 6
	pushq	%rbx
	subq	$152, %rsp
	.cfi_offset 3, -24
	movq	%rdi, -120(%rbp)
	movq	%rsi, -128(%rbp)
	movq	%rdx, -136(%rbp)
	movl	%ecx, -140(%rbp)
	movl	%r8d, -144(%rbp)
	movl	%r9d, %edx
	movl	16(%rbp), %eax
	movb	%dl, -148(%rbp)
	movb	%al, -152(%rbp)
	movq	%fs:40, %rax
	movq	%rax, -24(%rbp)
	xorl	%eax, %eax
	movzbl	-152(%rbp), %eax
	xorl	$1, %eax
	testb	%al, %al
	jne	.L288
	cmpb	$0, -148(%rbp)
	je	.L289
.L288:
	movl	$1, %eax
	jmp	.L290
.L289:
	movl	$0, %eax
.L290:
	andl	$1, %eax
	movzbl	%al, %eax
	movl	$0, %r9d
	movl	$2996, %r8d
	leaq	.LC74(%rip), %rcx
	leaq	.LC100(%rip), %rdx
	movl	$7, %esi
	movl	%eax, %edi
	movl	$0, %eax
	call	_ecs_assert
	movzbl	-152(%rbp), %eax
	xorl	$1, %eax
	testb	%al, %al
	jne	.L291
	cmpb	$0, -148(%rbp)
	jne	.L291
	leaq	__PRETTY_FUNCTION__.8184(%rip), %rcx
	movl	$2996, %edx
	leaq	.LC74(%rip), %rsi
	leaq	.LC100(%rip), %rdi
	call	__assert_fail@PLT
.L291:
	movq	-136(%rbp), %rax
	movq	8(%rax), %rax
	movl	$16, %edx
	movl	$8, %esi
	movq	%rax, %rdi
	call	_ecs_vector_first
	movq	%rax, -96(%rbp)
	movq	-136(%rbp), %rax
	movq	(%rax), %rax
	movl	$16, %edx
	movl	$8, %esi
	movq	%rax, %rdi
	call	_ecs_vector_first
	movq	%rax, -88(%rbp)
	movq	-128(%rbp), %rax
	movl	20(%rax), %eax
	movl	%eax, -104(%rbp)
	movl	-140(%rbp), %edx
	movl	-144(%rbp), %eax
	addl	%edx, %eax
	movl	%eax, -100(%rbp)
	movq	-128(%rbp), %rax
	movl	16(%rax), %eax
	andl	$256, %eax
	testl	%eax, %eax
	je	.L292
	movq	-120(%rbp), %rax
	movq	%rax, %rdi
	call	ecs_defer_begin
	movq	-128(%rbp), %rax
	movl	$1, 132(%rax)
	movl	-140(%rbp), %eax
	movl	%eax, -112(%rbp)
	jmp	.L293
.L310:
	movl	$0, -108(%rbp)
	jmp	.L294
.L295:
	movq	-136(%rbp), %rax
	movq	16(%rax), %rax
	movl	-108(%rbp), %edx
	movslq	%edx, %rdx
	salq	$4, %rdx
	addq	%rdx, %rax
	movq	%rax, -56(%rbp)
	movq	-128(%rbp), %rax
	movq	32(%rax), %rax
	movl	-108(%rbp), %edx
	movslq	%edx, %rdx
	salq	$3, %rdx
	addq	%rdx, %rax
	movq	(%rax), %rsi
	movl	-112(%rbp), %edi
	movq	-88(%rbp), %rcx
	movq	-56(%rbp), %rdx
	movq	-120(%rbp), %rax
	movl	$1, %r9d
	movl	%edi, %r8d
	movq	%rax, %rdi
	call	dtor_component
	addl	$1, -108(%rbp)
.L294:
	movl	-108(%rbp), %eax
	cmpl	-104(%rbp), %eax
	jl	.L295
	cmpb	$0, -148(%rbp)
	je	.L296
	movl	-112(%rbp), %eax
	cltq
	leaq	0(,%rax,8), %rdx
	movq	-88(%rbp), %rax
	addq	%rdx, %rax
	movq	(%rax), %rax
	movq	%rax, -64(%rbp)
	cmpq	$0, -64(%rbp)
	je	.L297
	movq	-64(%rbp), %rdx
	movq	-120(%rbp), %rax
	movq	%rdx, %rsi
	movq	%rax, %rdi
	call	ecs_is_valid
	testb	%al, %al
	je	.L298
.L297:
	movl	$1, %eax
	jmp	.L299
.L298:
	movl	$0, %eax
.L299:
	andl	$1, %eax
	movzbl	%al, %eax
	movl	$0, %r9d
	movl	$3025, %r8d
	leaq	.LC74(%rip), %rcx
	leaq	.LC101(%rip), %rdx
	movl	$7, %esi
	movl	%eax, %edi
	movl	$0, %eax
	call	_ecs_assert
	cmpq	$0, -64(%rbp)
	je	.L300
	movq	-64(%rbp), %rdx
	movq	-120(%rbp), %rax
	movq	%rdx, %rsi
	movq	%rax, %rdi
	call	ecs_is_valid
	testb	%al, %al
	jne	.L300
	leaq	__PRETTY_FUNCTION__.8184(%rip), %rcx
	movl	$3025, %edx
	leaq	.LC74(%rip), %rsi
	leaq	.LC101(%rip), %rdi
	call	__assert_fail@PLT
.L300:
	cmpq	$0, -64(%rbp)
	je	.L301
	movl	-112(%rbp), %eax
	cltq
	leaq	0(,%rax,8), %rdx
	movq	-96(%rbp), %rax
	addq	%rdx, %rax
	movq	(%rax), %rbx
	movq	-120(%rbp), %rax
	movq	40(%rax), %rax
	movq	-64(%rbp), %rdx
	movl	$16, %esi
	movq	%rax, %rdi
	call	_flecs_sparse_get
	cmpq	%rax, %rbx
	jne	.L302
.L301:
	movl	$1, %eax
	jmp	.L303
.L302:
	movl	$0, %eax
.L303:
	andl	$1, %eax
	movzbl	%al, %eax
	movl	$0, %r9d
	movl	$3027, %r8d
	leaq	.LC74(%rip), %rcx
	leaq	.LC102(%rip), %rdx
	movl	$7, %esi
	movl	%eax, %edi
	movl	$0, %eax
	call	_ecs_assert
	cmpq	$0, -64(%rbp)
	je	.L304
	movl	-112(%rbp), %eax
	cltq
	leaq	0(,%rax,8), %rdx
	movq	-96(%rbp), %rax
	addq	%rdx, %rax
	movq	(%rax), %rbx
	movq	-120(%rbp), %rax
	movq	40(%rax), %rax
	movq	-64(%rbp), %rdx
	movl	$16, %esi
	movq	%rax, %rdi
	call	_flecs_sparse_get
	cmpq	%rax, %rbx
	je	.L304
	leaq	__PRETTY_FUNCTION__.8184(%rip), %rcx
	movl	$3027, %edx
	leaq	.LC74(%rip), %rsi
	leaq	.LC103(%rip), %rdi
	call	__assert_fail@PLT
.L304:
	cmpq	$0, -64(%rbp)
	je	.L305
	movl	-112(%rbp), %eax
	cltq
	leaq	0(,%rax,8), %rdx
	movq	-96(%rbp), %rax
	addq	%rdx, %rax
	movq	(%rax), %rax
	movq	(%rax), %rax
	cmpq	%rax, -128(%rbp)
	jne	.L306
.L305:
	movl	$1, %eax
	jmp	.L307
.L306:
	movl	$0, %eax
.L307:
	andl	$1, %eax
	movzbl	%al, %eax
	movl	$0, %r9d
	movl	$3029, %r8d
	leaq	.LC74(%rip), %rcx
	leaq	.LC104(%rip), %rdx
	movl	$7, %esi
	movl	%eax, %edi
	movl	$0, %eax
	call	_ecs_assert
	cmpq	$0, -64(%rbp)
	je	.L308
	movl	-112(%rbp), %eax
	cltq
	leaq	0(,%rax,8), %rdx
	movq	-96(%rbp), %rax
	addq	%rdx, %rax
	movq	(%rax), %rax
	movq	(%rax), %rax
	cmpq	%rax, -128(%rbp)
	je	.L308
	leaq	__PRETTY_FUNCTION__.8184(%rip), %rcx
	movl	$3029, %edx
	leaq	.LC74(%rip), %rsi
	leaq	.LC104(%rip), %rdi
	call	__assert_fail@PLT
.L308:
	cmpb	$0, -152(%rbp)
	je	.L309
	movq	-120(%rbp), %rax
	movq	40(%rax), %rax
	movq	-64(%rbp), %rdx
	movq	%rdx, %rsi
	movq	%rax, %rdi
	call	flecs_sparse_remove
	movq	-64(%rbp), %rdx
	movq	-120(%rbp), %rax
	movq	%rdx, %rsi
	movq	%rax, %rdi
	call	ecs_is_valid
	movzbl	%al, %eax
	testl	%eax, %eax
	setne	%al
	xorl	$1, %eax
	movzbl	%al, %eax
	andl	$1, %eax
	movzbl	%al, %eax
	movl	$0, %r9d
	movl	$3034, %r8d
	leaq	.LC74(%rip), %rcx
	leaq	.LC105(%rip), %rdx
	movl	$7, %esi
	movl	%eax, %edi
	movl	$0, %eax
	call	_ecs_assert
	movq	-64(%rbp), %rdx
	movq	-120(%rbp), %rax
	movq	%rdx, %rsi
	movq	%rax, %rdi
	call	ecs_is_valid
	xorl	$1, %eax
	testb	%al, %al
	jne	.L296
	leaq	__PRETTY_FUNCTION__.8184(%rip), %rcx
	movl	$3034, %edx
	leaq	.LC74(%rip), %rsi
	leaq	.LC106(%rip), %rdi
	call	__assert_fail@PLT
.L309:
	movq	$0, -48(%rbp)
	movl	$0, -40(%rbp)
	movq	-120(%rbp), %rax
	movq	40(%rax), %rax
	leaq	-48(%rbp), %rcx
	movq	-64(%rbp), %rdx
	movl	$16, %esi
	movq	%rax, %rdi
	call	_flecs_sparse_set
.L296:
	addl	$1, -112(%rbp)
.L293:
	movl	-112(%rbp), %eax
	cmpl	-100(%rbp), %eax
	jl	.L310
	movq	-128(%rbp), %rax
	movl	$0, 132(%rax)
	movq	-120(%rbp), %rax
	movq	%rax, %rdi
	call	ecs_defer_end
	jmp	.L343
.L292:
	cmpb	$0, -148(%rbp)
	je	.L343
	cmpb	$0, -152(%rbp)
	je	.L312
	movl	-140(%rbp), %eax
	movl	%eax, -112(%rbp)
	jmp	.L313
.L327:
	movl	-112(%rbp), %eax
	cltq
	leaq	0(,%rax,8), %rdx
	movq	-88(%rbp), %rax
	addq	%rdx, %rax
	movq	(%rax), %rax
	movq	%rax, -72(%rbp)
	cmpq	$0, -72(%rbp)
	je	.L314
	movq	-72(%rbp), %rdx
	movq	-120(%rbp), %rax
	movq	%rdx, %rsi
	movq	%rax, %rdi
	call	ecs_is_valid
	testb	%al, %al
	je	.L315
.L314:
	movl	$1, %eax
	jmp	.L316
.L315:
	movl	$0, %eax
.L316:
	andl	$1, %eax
	movzbl	%al, %eax
	movl	$0, %r9d
	movl	$3056, %r8d
	leaq	.LC74(%rip), %rcx
	leaq	.LC101(%rip), %rdx
	movl	$7, %esi
	movl	%eax, %edi
	movl	$0, %eax
	call	_ecs_assert
	cmpq	$0, -72(%rbp)
	je	.L317
	movq	-72(%rbp), %rdx
	movq	-120(%rbp), %rax
	movq	%rdx, %rsi
	movq	%rax, %rdi
	call	ecs_is_valid
	testb	%al, %al
	jne	.L317
	leaq	__PRETTY_FUNCTION__.8184(%rip), %rcx
	movl	$3056, %edx
	leaq	.LC74(%rip), %rsi
	leaq	.LC101(%rip), %rdi
	call	__assert_fail@PLT
.L317:
	cmpq	$0, -72(%rbp)
	je	.L318
	movl	-112(%rbp), %eax
	cltq
	leaq	0(,%rax,8), %rdx
	movq	-96(%rbp), %rax
	addq	%rdx, %rax
	movq	(%rax), %rbx
	movq	-120(%rbp), %rax
	movq	40(%rax), %rax
	movq	-72(%rbp), %rdx
	movl	$16, %esi
	movq	%rax, %rdi
	call	_flecs_sparse_get
	cmpq	%rax, %rbx
	jne	.L319
.L318:
	movl	$1, %eax
	jmp	.L320
.L319:
	movl	$0, %eax
.L320:
	andl	$1, %eax
	movzbl	%al, %eax
	movl	$0, %r9d
	movl	$3057, %r8d
	leaq	.LC74(%rip), %rcx
	leaq	.LC102(%rip), %rdx
	movl	$7, %esi
	movl	%eax, %edi
	movl	$0, %eax
	call	_ecs_assert
	cmpq	$0, -72(%rbp)
	je	.L321
	movl	-112(%rbp), %eax
	cltq
	leaq	0(,%rax,8), %rdx
	movq	-96(%rbp), %rax
	addq	%rdx, %rax
	movq	(%rax), %rbx
	movq	-120(%rbp), %rax
	movq	40(%rax), %rax
	movq	-72(%rbp), %rdx
	movl	$16, %esi
	movq	%rax, %rdi
	call	_flecs_sparse_get
	cmpq	%rax, %rbx
	je	.L321
	leaq	__PRETTY_FUNCTION__.8184(%rip), %rcx
	movl	$3057, %edx
	leaq	.LC74(%rip), %rsi
	leaq	.LC103(%rip), %rdi
	call	__assert_fail@PLT
.L321:
	cmpq	$0, -72(%rbp)
	je	.L322
	movl	-112(%rbp), %eax
	cltq
	leaq	0(,%rax,8), %rdx
	movq	-96(%rbp), %rax
	addq	%rdx, %rax
	movq	(%rax), %rax
	movq	(%rax), %rax
	cmpq	%rax, -128(%rbp)
	jne	.L323
.L322:
	movl	$1, %eax
	jmp	.L324
.L323:
	movl	$0, %eax
.L324:
	andl	$1, %eax
	movzbl	%al, %eax
	movl	$0, %r9d
	movl	$3059, %r8d
	leaq	.LC74(%rip), %rcx
	leaq	.LC104(%rip), %rdx
	movl	$7, %esi
	movl	%eax, %edi
	movl	$0, %eax
	call	_ecs_assert
	cmpq	$0, -72(%rbp)
	je	.L325
	movl	-112(%rbp), %eax
	cltq
	leaq	0(,%rax,8), %rdx
	movq	-96(%rbp), %rax
	addq	%rdx, %rax
	movq	(%rax), %rax
	movq	(%rax), %rax
	cmpq	%rax, -128(%rbp)
	je	.L325
	leaq	__PRETTY_FUNCTION__.8184(%rip), %rcx
	movl	$3059, %edx
	leaq	.LC74(%rip), %rsi
	leaq	.LC104(%rip), %rdi
	call	__assert_fail@PLT
.L325:
	movq	-120(%rbp), %rax
	movq	40(%rax), %rax
	movq	-72(%rbp), %rdx
	movq	%rdx, %rsi
	movq	%rax, %rdi
	call	flecs_sparse_remove
	movq	-72(%rbp), %rdx
	movq	-120(%rbp), %rax
	movq	%rdx, %rsi
	movq	%rax, %rdi
	call	ecs_is_valid
	movzbl	%al, %eax
	testl	%eax, %eax
	setne	%al
	xorl	$1, %eax
	movzbl	%al, %eax
	andl	$1, %eax
	movzbl	%al, %eax
	movl	$0, %r9d
	movl	$3063, %r8d
	leaq	.LC74(%rip), %rcx
	leaq	.LC107(%rip), %rdx
	movl	$7, %esi
	movl	%eax, %edi
	movl	$0, %eax
	call	_ecs_assert
	movq	-72(%rbp), %rdx
	movq	-120(%rbp), %rax
	movq	%rdx, %rsi
	movq	%rax, %rdi
	call	ecs_is_valid
	xorl	$1, %eax
	testb	%al, %al
	jne	.L326
	leaq	__PRETTY_FUNCTION__.8184(%rip), %rcx
	movl	$3063, %edx
	leaq	.LC74(%rip), %rsi
	leaq	.LC107(%rip), %rdi
	call	__assert_fail@PLT
.L326:
	addl	$1, -112(%rbp)
.L313:
	movl	-112(%rbp), %eax
	cmpl	-100(%rbp), %eax
	jl	.L327
	jmp	.L343
.L312:
	movl	-140(%rbp), %eax
	movl	%eax, -112(%rbp)
	jmp	.L328
.L341:
	movl	-112(%rbp), %eax
	cltq
	leaq	0(,%rax,8), %rdx
	movq	-88(%rbp), %rax
	addq	%rdx, %rax
	movq	(%rax), %rax
	movq	%rax, -80(%rbp)
	cmpq	$0, -80(%rbp)
	je	.L329
	movq	-80(%rbp), %rdx
	movq	-120(%rbp), %rax
	movq	%rdx, %rsi
	movq	%rax, %rdi
	call	ecs_is_valid
	testb	%al, %al
	je	.L330
.L329:
	movl	$1, %eax
	jmp	.L331
.L330:
	movl	$0, %eax
.L331:
	andl	$1, %eax
	movzbl	%al, %eax
	movl	$0, %r9d
	movl	$3068, %r8d
	leaq	.LC74(%rip), %rcx
	leaq	.LC101(%rip), %rdx
	movl	$7, %esi
	movl	%eax, %edi
	movl	$0, %eax
	call	_ecs_assert
	cmpq	$0, -80(%rbp)
	je	.L332
	movq	-80(%rbp), %rdx
	movq	-120(%rbp), %rax
	movq	%rdx, %rsi
	movq	%rax, %rdi
	call	ecs_is_valid
	testb	%al, %al
	jne	.L332
	leaq	__PRETTY_FUNCTION__.8184(%rip), %rcx
	movl	$3068, %edx
	leaq	.LC74(%rip), %rsi
	leaq	.LC101(%rip), %rdi
	call	__assert_fail@PLT
.L332:
	cmpq	$0, -80(%rbp)
	je	.L333
	movl	-112(%rbp), %eax
	cltq
	leaq	0(,%rax,8), %rdx
	movq	-96(%rbp), %rax
	addq	%rdx, %rax
	movq	(%rax), %rbx
	movq	-120(%rbp), %rax
	movq	40(%rax), %rax
	movq	-80(%rbp), %rdx
	movl	$16, %esi
	movq	%rax, %rdi
	call	_flecs_sparse_get
	cmpq	%rax, %rbx
	jne	.L334
.L333:
	movl	$1, %eax
	jmp	.L335
.L334:
	movl	$0, %eax
.L335:
	andl	$1, %eax
	movzbl	%al, %eax
	movl	$0, %r9d
	movl	$3069, %r8d
	leaq	.LC74(%rip), %rcx
	leaq	.LC102(%rip), %rdx
	movl	$7, %esi
	movl	%eax, %edi
	movl	$0, %eax
	call	_ecs_assert
	cmpq	$0, -80(%rbp)
	je	.L336
	movl	-112(%rbp), %eax
	cltq
	leaq	0(,%rax,8), %rdx
	movq	-96(%rbp), %rax
	addq	%rdx, %rax
	movq	(%rax), %rbx
	movq	-120(%rbp), %rax
	movq	40(%rax), %rax
	movq	-80(%rbp), %rdx
	movl	$16, %esi
	movq	%rax, %rdi
	call	_flecs_sparse_get
	cmpq	%rax, %rbx
	je	.L336
	leaq	__PRETTY_FUNCTION__.8184(%rip), %rcx
	movl	$3069, %edx
	leaq	.LC74(%rip), %rsi
	leaq	.LC103(%rip), %rdi
	call	__assert_fail@PLT
.L336:
	cmpq	$0, -80(%rbp)
	je	.L337
	movl	-112(%rbp), %eax
	cltq
	leaq	0(,%rax,8), %rdx
	movq	-96(%rbp), %rax
	addq	%rdx, %rax
	movq	(%rax), %rax
	movq	(%rax), %rax
	cmpq	%rax, -128(%rbp)
	jne	.L338
.L337:
	movl	$1, %eax
	jmp	.L339
.L338:
	movl	$0, %eax
.L339:
	andl	$1, %eax
	movzbl	%al, %eax
	movl	$0, %r9d
	movl	$3071, %r8d
	leaq	.LC74(%rip), %rcx
	leaq	.LC104(%rip), %rdx
	movl	$7, %esi
	movl	%eax, %edi
	movl	$0, %eax
	call	_ecs_assert
	cmpq	$0, -80(%rbp)
	je	.L340
	movl	-112(%rbp), %eax
	cltq
	leaq	0(,%rax,8), %rdx
	movq	-96(%rbp), %rax
	addq	%rdx, %rax
	movq	(%rax), %rax
	movq	(%rax), %rax
	cmpq	%rax, -128(%rbp)
	je	.L340
	leaq	__PRETTY_FUNCTION__.8184(%rip), %rcx
	movl	$3071, %edx
	leaq	.LC74(%rip), %rsi
	leaq	.LC104(%rip), %rdi
	call	__assert_fail@PLT
.L340:
	movq	$0, -48(%rbp)
	movl	$0, -40(%rbp)
	movq	-120(%rbp), %rax
	movq	40(%rax), %rax
	leaq	-48(%rbp), %rcx
	movq	-80(%rbp), %rdx
	movl	$16, %esi
	movq	%rax, %rdi
	call	_flecs_sparse_set
	addl	$1, -112(%rbp)
.L328:
	movl	-112(%rbp), %eax
	cmpl	-100(%rbp), %eax
	jl	.L341
.L343:
	nop
	movq	-24(%rbp), %rax
	xorq	%fs:40, %rax
	je	.L342
	call	__stack_chk_fail@PLT
.L342:
	addq	$152, %rsp
	popq	%rbx
	popq	%rbp
	.cfi_def_cfa 7, 8
	ret
	.cfi_endproc
.LFE41:
	.size	dtor_all_components, .-dtor_all_components
	.section	.rodata
	.align 8
.LC108:
	.string	"ecs_vector_count(data->record_ptrs) == ecs_vector_count(data->entities)"
	.align 8
.LC109:
	.string	"!columns[c].data || (ecs_vector_count(columns[c].data) == ecs_vector_count(data->entities))"
	.text
	.type	fini_data, @function
fini_data:
.LFB42:
	.cfi_startproc
	endbr64
	pushq	%rbp
	.cfi_def_cfa_offset 16
	.cfi_offset 6, -16
	movq	%rsp, %rbp
	.cfi_def_cfa_register 6
	pushq	%rbx
	subq	$120, %rsp
	.cfi_offset 3, -24
	movq	%rdi, -88(%rbp)
	movq	%rsi, -96(%rbp)
	movq	%rdx, -104(%rbp)
	movl	%ecx, %eax
	movl	%r8d, %esi
	movl	%r9d, %ecx
	movl	16(%rbp), %edx
	movb	%al, -108(%rbp)
	movl	%esi, %eax
	movb	%al, -112(%rbp)
	movl	%ecx, %eax
	movb	%al, -116(%rbp)
	movl	%edx, %eax
	movb	%al, -120(%rbp)
	movq	-96(%rbp), %rax
	movl	132(%rax), %eax
	testl	%eax, %eax
	sete	%al
	movzbl	%al, %eax
	movl	$0, %r9d
	movl	$3090, %r8d
	leaq	.LC74(%rip), %rcx
	leaq	.LC95(%rip), %rdx
	movl	$71, %esi
	movl	%eax, %edi
	movl	$0, %eax
	call	_ecs_assert
	movq	-96(%rbp), %rax
	movl	132(%rax), %eax
	testl	%eax, %eax
	je	.L345
	leaq	__PRETTY_FUNCTION__.8218(%rip), %rcx
	movl	$3090, %edx
	leaq	.LC74(%rip), %rsi
	leaq	.LC95(%rip), %rdi
	call	__assert_fail@PLT
.L345:
	cmpq	$0, -104(%rbp)
	je	.L364
	cmpb	$0, -108(%rbp)
	je	.L348
	movq	-104(%rbp), %rdx
	movq	-96(%rbp), %rcx
	movq	-88(%rbp), %rax
	movq	%rcx, %rsi
	movq	%rax, %rdi
	call	run_on_remove
.L348:
	movq	-104(%rbp), %rax
	movq	%rax, %rdi
	call	flecs_table_data_count
	movl	%eax, -56(%rbp)
	cmpl	$0, -56(%rbp)
	je	.L349
	movzbl	-116(%rbp), %ecx
	movzbl	-112(%rbp), %r8d
	movl	-56(%rbp), %edi
	movq	-104(%rbp), %rdx
	movq	-96(%rbp), %rsi
	movq	-88(%rbp), %rax
	subq	$8, %rsp
	pushq	%rcx
	movl	%r8d, %r9d
	movl	%edi, %r8d
	movl	$0, %ecx
	movq	%rax, %rdi
	call	dtor_all_components
	addq	$16, %rsp
.L349:
	movq	-104(%rbp), %rax
	movq	8(%rax), %rax
	movq	%rax, %rdi
	call	ecs_vector_count
	movl	%eax, %ebx
	movq	-104(%rbp), %rax
	movq	(%rax), %rax
	movq	%rax, %rdi
	call	ecs_vector_count
	cmpl	%eax, %ebx
	sete	%al
	movzbl	%al, %eax
	movl	$0, %r9d
	movl	$3107, %r8d
	leaq	.LC74(%rip), %rcx
	leaq	.LC108(%rip), %rdx
	movl	$7, %esi
	movl	%eax, %edi
	movl	$0, %eax
	call	_ecs_assert
	movq	-104(%rbp), %rax
	movq	8(%rax), %rax
	movq	%rax, %rdi
	call	ecs_vector_count
	movl	%eax, %ebx
	movq	-104(%rbp), %rax
	movq	(%rax), %rax
	movq	%rax, %rdi
	call	ecs_vector_count
	cmpl	%eax, %ebx
	je	.L350
	leaq	__PRETTY_FUNCTION__.8218(%rip), %rcx
	movl	$3107, %edx
	leaq	.LC74(%rip), %rsi
	leaq	.LC108(%rip), %rdi
	call	__assert_fail@PLT
.L350:
	movq	-104(%rbp), %rax
	movq	16(%rax), %rax
	movq	%rax, -40(%rbp)
	cmpq	$0, -40(%rbp)
	je	.L351
	movq	-96(%rbp), %rax
	movl	20(%rax), %eax
	movl	%eax, -52(%rbp)
	movl	$0, -68(%rbp)
	jmp	.L352
.L357:
	movl	-68(%rbp), %eax
	cltq
	salq	$4, %rax
	movq	%rax, %rdx
	movq	-40(%rbp), %rax
	addq	%rdx, %rax
	movq	(%rax), %rax
	testq	%rax, %rax
	je	.L353
	movl	-68(%rbp), %eax
	cltq
	salq	$4, %rax
	movq	%rax, %rdx
	movq	-40(%rbp), %rax
	addq	%rdx, %rax
	movq	(%rax), %rax
	movq	%rax, %rdi
	call	ecs_vector_count
	movl	%eax, %ebx
	movq	-104(%rbp), %rax
	movq	(%rax), %rax
	movq	%rax, %rdi
	call	ecs_vector_count
	cmpl	%eax, %ebx
	jne	.L354
.L353:
	movl	$1, %eax
	jmp	.L355
.L354:
	movl	$0, %eax
.L355:
	andl	$1, %eax
	movzbl	%al, %eax
	movl	$0, %r9d
	movl	$3115, %r8d
	leaq	.LC74(%rip), %rcx
	leaq	.LC109(%rip), %rdx
	movl	$7, %esi
	movl	%eax, %edi
	movl	$0, %eax
	call	_ecs_assert
	movl	-68(%rbp), %eax
	cltq
	salq	$4, %rax
	movq	%rax, %rdx
	movq	-40(%rbp), %rax
	addq	%rdx, %rax
	movq	(%rax), %rax
	testq	%rax, %rax
	je	.L356
	movl	-68(%rbp), %eax
	cltq
	salq	$4, %rax
	movq	%rax, %rdx
	movq	-40(%rbp), %rax
	addq	%rdx, %rax
	movq	(%rax), %rax
	movq	%rax, %rdi
	call	ecs_vector_count
	movl	%eax, %ebx
	movq	-104(%rbp), %rax
	movq	(%rax), %rax
	movq	%rax, %rdi
	call	ecs_vector_count
	cmpl	%eax, %ebx
	je	.L356
	leaq	__PRETTY_FUNCTION__.8218(%rip), %rcx
	movl	$3115, %edx
	leaq	.LC74(%rip), %rsi
	leaq	.LC109(%rip), %rdi
	call	__assert_fail@PLT
.L356:
	movl	-68(%rbp), %eax
	cltq
	salq	$4, %rax
	movq	%rax, %rdx
	movq	-40(%rbp), %rax
	addq	%rdx, %rax
	movq	(%rax), %rax
	movq	%rax, %rdi
	call	ecs_vector_free
	addl	$1, -68(%rbp)
.L352:
	movl	-68(%rbp), %eax
	cmpl	-52(%rbp), %eax
	jl	.L357
	movq	40+ecs_os_api(%rip), %rdx
	movq	-40(%rbp), %rax
	movq	%rax, %rdi
	call	*%rdx
	movq	-104(%rbp), %rax
	movq	$0, 16(%rax)
.L351:
	movq	-104(%rbp), %rax
	movq	24(%rax), %rax
	movq	%rax, -32(%rbp)
	cmpq	$0, -32(%rbp)
	je	.L358
	movq	-96(%rbp), %rax
	movl	116(%rax), %eax
	movl	%eax, -48(%rbp)
	movl	$0, -64(%rbp)
	jmp	.L359
.L360:
	movl	-64(%rbp), %eax
	cltq
	salq	$4, %rax
	movq	%rax, %rdx
	movq	-32(%rbp), %rax
	addq	%rdx, %rax
	movq	(%rax), %rax
	movq	%rax, %rdi
	call	flecs_switch_free
	addl	$1, -64(%rbp)
.L359:
	movl	-64(%rbp), %eax
	cmpl	-48(%rbp), %eax
	jl	.L360
	movq	40+ecs_os_api(%rip), %rdx
	movq	-32(%rbp), %rax
	movq	%rax, %rdi
	call	*%rdx
	movq	-104(%rbp), %rax
	movq	$0, 24(%rax)
.L358:
	movq	-104(%rbp), %rax
	movq	32(%rax), %rax
	movq	%rax, -24(%rbp)
	cmpq	$0, -24(%rbp)
	je	.L361
	movq	-96(%rbp), %rax
	movl	124(%rax), %eax
	movl	%eax, -44(%rbp)
	movl	$0, -60(%rbp)
	jmp	.L362
.L363:
	movl	-60(%rbp), %eax
	cltq
	salq	$4, %rax
	movq	%rax, %rdx
	movq	-24(%rbp), %rax
	addq	%rdx, %rax
	movq	%rax, %rdi
	call	flecs_bitset_deinit
	addl	$1, -60(%rbp)
.L362:
	movl	-60(%rbp), %eax
	cmpl	-44(%rbp), %eax
	jl	.L363
	movq	40+ecs_os_api(%rip), %rdx
	movq	-24(%rbp), %rax
	movq	%rax, %rdi
	call	*%rdx
	movq	-104(%rbp), %rax
	movq	$0, 32(%rax)
.L361:
	movq	-104(%rbp), %rax
	movq	(%rax), %rax
	movq	%rax, %rdi
	call	ecs_vector_free
	movq	-104(%rbp), %rax
	movq	8(%rax), %rax
	movq	%rax, %rdi
	call	ecs_vector_free
	movq	-104(%rbp), %rax
	movq	$0, (%rax)
	movq	-104(%rbp), %rax
	movq	$0, 8(%rax)
	cmpb	$0, -120(%rbp)
	je	.L344
	cmpl	$0, -56(%rbp)
	je	.L344
	movq	-96(%rbp), %rsi
	movq	-88(%rbp), %rax
	movl	$0, %ecx
	movl	$0, %edx
	movq	%rax, %rdi
	call	table_activate
	jmp	.L344
.L364:
	nop
.L344:
	movq	-8(%rbp), %rbx
	leave
	.cfi_def_cfa 7, 8
	ret
	.cfi_endproc
.LFE42:
	.size	fini_data, .-fini_data
	.globl	flecs_table_clear_data
	.type	flecs_table_clear_data, @function
flecs_table_clear_data:
.LFB43:
	.cfi_startproc
	endbr64
	pushq	%rbp
	.cfi_def_cfa_offset 16
	.cfi_offset 6, -16
	movq	%rsp, %rbp
	.cfi_def_cfa_register 6
	subq	$32, %rsp
	movq	%rdi, -8(%rbp)
	movq	%rsi, -16(%rbp)
	movq	%rdx, -24(%rbp)
	movq	-24(%rbp), %rdx
	movq	-16(%rbp), %rsi
	movq	-8(%rbp), %rax
	subq	$8, %rsp
	pushq	$0
	movl	$0, %r9d
	movl	$0, %r8d
	movl	$0, %ecx
	movq	%rax, %rdi
	call	fini_data
	addq	$16, %rsp
	nop
	leave
	.cfi_def_cfa 7, 8
	ret
	.cfi_endproc
.LFE43:
	.size	flecs_table_clear_data, .-flecs_table_clear_data
	.globl	flecs_table_clear_entities_silent
	.type	flecs_table_clear_entities_silent, @function
flecs_table_clear_entities_silent:
.LFB44:
	.cfi_startproc
	endbr64
	pushq	%rbp
	.cfi_def_cfa_offset 16
	.cfi_offset 6, -16
	movq	%rsp, %rbp
	.cfi_def_cfa_register 6
	subq	$16, %rsp
	movq	%rdi, -8(%rbp)
	movq	%rsi, -16(%rbp)
	movq	-16(%rbp), %rax
	movq	%rax, %rdi
	call	flecs_table_get_data
	movq	%rax, %rdx
	movq	-16(%rbp), %rsi
	movq	-8(%rbp), %rax
	subq	$8, %rsp
	pushq	$1
	movl	$0, %r9d
	movl	$1, %r8d
	movl	$0, %ecx
	movq	%rax, %rdi
	call	fini_data
	addq	$16, %rsp
	nop
	leave
	.cfi_def_cfa 7, 8
	ret
	.cfi_endproc
.LFE44:
	.size	flecs_table_clear_entities_silent, .-flecs_table_clear_entities_silent
	.globl	flecs_table_clear_entities
	.type	flecs_table_clear_entities, @function
flecs_table_clear_entities:
.LFB45:
	.cfi_startproc
	endbr64
	pushq	%rbp
	.cfi_def_cfa_offset 16
	.cfi_offset 6, -16
	movq	%rsp, %rbp
	.cfi_def_cfa_register 6
	subq	$16, %rsp
	movq	%rdi, -8(%rbp)
	movq	%rsi, -16(%rbp)
	movq	-16(%rbp), %rax
	movq	%rax, %rdi
	call	flecs_table_get_data
	movq	%rax, %rdx
	movq	-16(%rbp), %rsi
	movq	-8(%rbp), %rax
	subq	$8, %rsp
	pushq	$1
	movl	$0, %r9d
	movl	$1, %r8d
	movl	$1, %ecx
	movq	%rax, %rdi
	call	fini_data
	addq	$16, %rsp
	nop
	leave
	.cfi_def_cfa 7, 8
	ret
	.cfi_endproc
.LFE45:
	.size	flecs_table_clear_entities, .-flecs_table_clear_entities
	.globl	flecs_table_delete_entities
	.type	flecs_table_delete_entities, @function
flecs_table_delete_entities:
.LFB46:
	.cfi_startproc
	endbr64
	pushq	%rbp
	.cfi_def_cfa_offset 16
	.cfi_offset 6, -16
	movq	%rsp, %rbp
	.cfi_def_cfa_register 6
	subq	$16, %rsp
	movq	%rdi, -8(%rbp)
	movq	%rsi, -16(%rbp)
	movq	-16(%rbp), %rax
	movq	%rax, %rdi
	call	flecs_table_get_data
	movq	%rax, %rdx
	movq	-16(%rbp), %rsi
	movq	-8(%rbp), %rax
	subq	$8, %rsp
	pushq	$1
	movl	$1, %r9d
	movl	$1, %r8d
	movl	$1, %ecx
	movq	%rax, %rdi
	call	fini_data
	addq	$16, %rsp
	nop
	leave
	.cfi_def_cfa 7, 8
	ret
	.cfi_endproc
.LFE46:
	.size	flecs_table_delete_entities, .-flecs_table_delete_entities
	.globl	flecs_table_remove_actions
	.type	flecs_table_remove_actions, @function
flecs_table_remove_actions:
.LFB47:
	.cfi_startproc
	endbr64
	pushq	%rbp
	.cfi_def_cfa_offset 16
	.cfi_offset 6, -16
	movq	%rsp, %rbp
	.cfi_def_cfa_register 6
	subq	$32, %rsp
	movq	%rdi, -24(%rbp)
	movq	%rsi, -32(%rbp)
	movq	-32(%rbp), %rax
	movq	%rax, %rdi
	call	flecs_table_get_data
	movq	%rax, -8(%rbp)
	cmpq	$0, -8(%rbp)
	je	.L371
	movq	-8(%rbp), %rdx
	movq	-32(%rbp), %rcx
	movq	-24(%rbp), %rax
	movq	%rcx, %rsi
	movq	%rax, %rdi
	call	run_on_remove
.L371:
	nop
	leave
	.cfi_def_cfa 7, 8
	ret
	.cfi_endproc
.LFE47:
	.size	flecs_table_remove_actions, .-flecs_table_remove_actions
	.globl	flecs_table_free
	.type	flecs_table_free, @function
flecs_table_free:
.LFB48:
	.cfi_startproc
	endbr64
	pushq	%rbp
	.cfi_def_cfa_offset 16
	.cfi_offset 6, -16
	movq	%rsp, %rbp
	.cfi_def_cfa_register 6
	subq	$32, %rsp
	movq	%rdi, -24(%rbp)
	movq	%rsi, -32(%rbp)
	movq	-32(%rbp), %rax
	movl	132(%rax), %eax
	testl	%eax, %eax
	sete	%al
	movzbl	%al, %eax
	movl	$0, %r9d
	movl	$3207, %r8d
	leaq	.LC74(%rip), %rcx
	leaq	.LC95(%rip), %rdx
	movl	$71, %esi
	movl	%eax, %edi
	movl	$0, %eax
	call	_ecs_assert
	movq	-32(%rbp), %rax
	movl	132(%rax), %eax
	testl	%eax, %eax
	je	.L373
	leaq	__PRETTY_FUNCTION__.8264(%rip), %rcx
	movl	$3207, %edx
	leaq	.LC74(%rip), %rsi
	leaq	.LC95(%rip), %rdi
	call	__assert_fail@PLT
.L373:
	movq	-32(%rbp), %rax
	movq	%rax, %rdi
	call	flecs_table_get_data
	movq	%rax, -8(%rbp)
	movq	-8(%rbp), %rdx
	movq	-32(%rbp), %rsi
	movq	-24(%rbp), %rax
	subq	$8, %rsp
	pushq	$0
	movl	$1, %r9d
	movl	$1, %r8d
	movl	$0, %ecx
	movq	%rax, %rdi
	call	fini_data
	addq	$16, %rsp
	movq	-32(%rbp), %rdx
	movq	-24(%rbp), %rax
	movq	%rdx, %rsi
	movq	%rax, %rdi
	call	flecs_table_clear_edges
	movq	-32(%rbp), %rdx
	movq	-24(%rbp), %rax
	movq	%rdx, %rsi
	movq	%rax, %rdi
	call	flecs_unregister_table
	movq	40+ecs_os_api(%rip), %rdx
	movq	-32(%rbp), %rax
	movq	40(%rax), %rax
	movq	%rax, %rdi
	call	*%rdx
	movq	-32(%rbp), %rax
	movq	48(%rax), %rax
	movq	%rax, %rdi
	call	ecs_map_free
	movq	-32(%rbp), %rax
	movq	56(%rax), %rax
	movq	%rax, %rdi
	call	ecs_vector_free
	movq	40+ecs_os_api(%rip), %rdx
	movq	-32(%rbp), %rax
	movq	104(%rax), %rax
	movq	%rax, %rdi
	call	*%rdx
	movq	-32(%rbp), %rax
	movq	64(%rax), %rax
	movq	%rax, %rdi
	call	ecs_vector_free
	movq	-32(%rbp), %rax
	movq	80(%rax), %rax
	movq	%rax, %rdi
	call	ecs_vector_free
	movq	-32(%rbp), %rax
	movq	88(%rax), %rax
	movq	%rax, %rdi
	call	ecs_vector_free
	movq	-32(%rbp), %rax
	movq	96(%rax), %rax
	movq	%rax, %rdi
	call	ecs_vector_free
	movq	-32(%rbp), %rax
	movq	32(%rax), %rax
	testq	%rax, %rax
	je	.L374
	movq	40+ecs_os_api(%rip), %rdx
	movq	-32(%rbp), %rax
	movq	32(%rax), %rax
	movq	%rax, %rdi
	call	*%rdx
.L374:
	movq	-32(%rbp), %rax
	movq	72(%rax), %rax
	testq	%rax, %rax
	je	.L375
	movl	$0, -12(%rbp)
	jmp	.L376
.L377:
	movq	-32(%rbp), %rax
	movq	72(%rax), %rax
	movl	-12(%rbp), %edx
	movslq	%edx, %rdx
	salq	$3, %rdx
	addq	%rdx, %rax
	movq	(%rax), %rax
	movq	%rax, %rdi
	call	ecs_vector_free
	addl	$1, -12(%rbp)
.L376:
	movq	-32(%rbp), %rax
	movl	20(%rax), %eax
	cmpl	%eax, -12(%rbp)
	jl	.L377
	movq	40+ecs_os_api(%rip), %rdx
	movq	-32(%rbp), %rax
	movq	72(%rax), %rax
	movq	%rax, %rdi
	call	*%rdx
.L375:
	movq	-32(%rbp), %rax
	movq	$0, (%rax)
	movq	40+ecs_os_api(%rip), %rdx
	movq	-32(%rbp), %rax
	movq	24(%rax), %rax
	movq	%rax, %rdi
	call	*%rdx
	nop
	leave
	.cfi_def_cfa 7, 8
	ret
	.cfi_endproc
.LFE48:
	.size	flecs_table_free, .-flecs_table_free
	.globl	flecs_table_free_type
	.type	flecs_table_free_type, @function
flecs_table_free_type:
.LFB49:
	.cfi_startproc
	endbr64
	pushq	%rbp
	.cfi_def_cfa_offset 16
	.cfi_offset 6, -16
	movq	%rsp, %rbp
	.cfi_def_cfa_register 6
	subq	$16, %rsp
	movq	%rdi, -8(%rbp)
	movq	-8(%rbp), %rax
	movq	8(%rax), %rax
	movq	%rax, %rdi
	call	ecs_vector_free
	nop
	leave
	.cfi_def_cfa 7, 8
	ret
	.cfi_endproc
.LFE49:
	.size	flecs_table_free_type, .-flecs_table_free_type
	.globl	flecs_table_reset
	.type	flecs_table_reset, @function
flecs_table_reset:
.LFB50:
	.cfi_startproc
	endbr64
	pushq	%rbp
	.cfi_def_cfa_offset 16
	.cfi_offset 6, -16
	movq	%rsp, %rbp
	.cfi_def_cfa_register 6
	subq	$16, %rsp
	movq	%rdi, -8(%rbp)
	movq	%rsi, -16(%rbp)
	movq	-16(%rbp), %rax
	movl	132(%rax), %eax
	testl	%eax, %eax
	sete	%al
	movzbl	%al, %eax
	movl	$0, %r9d
	movl	$3257, %r8d
	leaq	.LC74(%rip), %rcx
	leaq	.LC95(%rip), %rdx
	movl	$71, %esi
	movl	%eax, %edi
	movl	$0, %eax
	call	_ecs_assert
	movq	-16(%rbp), %rax
	movl	132(%rax), %eax
	testl	%eax, %eax
	je	.L380
	leaq	__PRETTY_FUNCTION__.8277(%rip), %rcx
	movl	$3257, %edx
	leaq	.LC74(%rip), %rsi
	leaq	.LC95(%rip), %rdi
	call	__assert_fail@PLT
.L380:
	movq	40+ecs_os_api(%rip), %rdx
	movq	-16(%rbp), %rax
	movq	40(%rax), %rax
	movq	%rax, %rdi
	call	*%rdx
	movq	-16(%rbp), %rax
	movq	48(%rax), %rax
	movq	%rax, %rdi
	call	ecs_map_free
	movq	-16(%rbp), %rax
	movq	$0, 40(%rax)
	movq	-16(%rbp), %rax
	movq	$0, 48(%rax)
	nop
	leave
	.cfi_def_cfa 7, 8
	ret
	.cfi_endproc
.LFE50:
	.size	flecs_table_reset, .-flecs_table_reset
	.type	mark_table_dirty, @function
mark_table_dirty:
.LFB51:
	.cfi_startproc
	endbr64
	pushq	%rbp
	.cfi_def_cfa_offset 16
	.cfi_offset 6, -16
	movq	%rsp, %rbp
	.cfi_def_cfa_register 6
	movq	%rdi, -8(%rbp)
	movl	%esi, -12(%rbp)
	movq	-8(%rbp), %rax
	movq	104(%rax), %rax
	testq	%rax, %rax
	je	.L383
	movq	-8(%rbp), %rax
	movq	104(%rax), %rax
	movl	-12(%rbp), %edx
	movslq	%edx, %rdx
	salq	$2, %rdx
	addq	%rdx, %rax
	movl	(%rax), %edx
	addl	$1, %edx
	movl	%edx, (%rax)
.L383:
	nop
	popq	%rbp
	.cfi_def_cfa 7, 8
	ret
	.cfi_endproc
.LFE51:
	.size	mark_table_dirty, .-mark_table_dirty
	.section	.rodata
.LC110:
	.string	"index != -1"
	.text
	.globl	flecs_table_mark_dirty
	.type	flecs_table_mark_dirty, @function
flecs_table_mark_dirty:
.LFB52:
	.cfi_startproc
	endbr64
	pushq	%rbp
	.cfi_def_cfa_offset 16
	.cfi_offset 6, -16
	movq	%rsp, %rbp
	.cfi_def_cfa_register 6
	subq	$32, %rsp
	movq	%rdi, -24(%rbp)
	movq	%rsi, -32(%rbp)
	movq	-24(%rbp), %rax
	movl	132(%rax), %eax
	testl	%eax, %eax
	sete	%al
	movzbl	%al, %eax
	movl	$0, %r9d
	movl	$3280, %r8d
	leaq	.LC74(%rip), %rcx
	leaq	.LC95(%rip), %rdx
	movl	$71, %esi
	movl	%eax, %edi
	movl	$0, %eax
	call	_ecs_assert
	movq	-24(%rbp), %rax
	movl	132(%rax), %eax
	testl	%eax, %eax
	je	.L385
	leaq	__PRETTY_FUNCTION__.8286(%rip), %rcx
	movl	$3280, %edx
	leaq	.LC74(%rip), %rsi
	leaq	.LC95(%rip), %rdi
	call	__assert_fail@PLT
.L385:
	cmpq	$0, -24(%rbp)
	setne	%al
	movzbl	%al, %eax
	movl	$0, %r9d
	movl	$3281, %r8d
	leaq	.LC74(%rip), %rcx
	leaq	.LC93(%rip), %rdx
	movl	$7, %esi
	movl	%eax, %edi
	movl	$0, %eax
	call	_ecs_assert
	cmpq	$0, -24(%rbp)
	jne	.L386
	leaq	__PRETTY_FUNCTION__.8286(%rip), %rcx
	movl	$3281, %edx
	leaq	.LC74(%rip), %rsi
	leaq	.LC94(%rip), %rdi
	call	__assert_fail@PLT
.L386:
	movq	-24(%rbp), %rax
	movq	104(%rax), %rax
	testq	%rax, %rax
	je	.L389
	movq	-24(%rbp), %rax
	movq	8(%rax), %rax
	movq	-32(%rbp), %rdx
	movl	$0, %esi
	movq	%rax, %rdi
	call	ecs_type_index_of
	movl	%eax, -4(%rbp)
	cmpl	$-1, -4(%rbp)
	setne	%al
	movzbl	%al, %eax
	movl	$0, %r9d
	movl	$3285, %r8d
	leaq	.LC74(%rip), %rcx
	leaq	.LC110(%rip), %rdx
	movl	$7, %esi
	movl	%eax, %edi
	movl	$0, %eax
	call	_ecs_assert
	cmpl	$-1, -4(%rbp)
	jne	.L388
	leaq	__PRETTY_FUNCTION__.8286(%rip), %rcx
	movl	$3285, %edx
	leaq	.LC74(%rip), %rsi
	leaq	.LC110(%rip), %rdi
	call	__assert_fail@PLT
.L388:
	movq	-24(%rbp), %rax
	movq	104(%rax), %rax
	movl	-4(%rbp), %edx
	movslq	%edx, %rdx
	salq	$2, %rdx
	addq	%rdx, %rax
	movl	(%rax), %edx
	addl	$1, %edx
	movl	%edx, (%rax)
.L389:
	nop
	leave
	.cfi_def_cfa 7, 8
	ret
	.cfi_endproc
.LFE52:
	.size	flecs_table_mark_dirty, .-flecs_table_mark_dirty
	.type	move_switch_columns, @function
move_switch_columns:
.LFB53:
	.cfi_startproc
	endbr64
	pushq	%rbp
	.cfi_def_cfa_offset 16
	.cfi_offset 6, -16
	movq	%rsp, %rbp
	.cfi_def_cfa_register 6
	subq	$176, %rsp
	movq	%rdi, -136(%rbp)
	movq	%rsi, -144(%rbp)
	movl	%edx, -148(%rbp)
	movq	%rcx, -160(%rbp)
	movq	%r8, -168(%rbp)
	movl	%r9d, -152(%rbp)
	movl	$0, -116(%rbp)
	movq	-160(%rbp), %rax
	movl	116(%rax), %eax
	movl	%eax, -104(%rbp)
	movl	$0, -112(%rbp)
	movq	-136(%rbp), %rax
	movl	116(%rax), %eax
	movl	%eax, -100(%rbp)
	cmpl	$0, -104(%rbp)
	je	.L399
	cmpl	$0, -100(%rbp)
	je	.L399
	movq	-168(%rbp), %rax
	movq	24(%rax), %rax
	movq	%rax, -88(%rbp)
	movq	-144(%rbp), %rax
	movq	24(%rax), %rax
	movq	%rax, -80(%rbp)
	movq	-136(%rbp), %rax
	movq	8(%rax), %rax
	movq	%rax, -72(%rbp)
	movq	-160(%rbp), %rax
	movq	8(%rax), %rax
	movq	%rax, -64(%rbp)
	movq	-136(%rbp), %rax
	movl	120(%rax), %eax
	movl	%eax, -96(%rbp)
	movq	-160(%rbp), %rax
	movl	120(%rax), %eax
	movl	%eax, -92(%rbp)
	movq	-72(%rbp), %rax
	movl	$16, %edx
	movl	$8, %esi
	movq	%rax, %rdi
	call	_ecs_vector_first
	movq	%rax, -56(%rbp)
	movq	-64(%rbp), %rax
	movl	$16, %edx
	movl	$8, %esi
	movq	%rax, %rdi
	call	_ecs_vector_first
	movq	%rax, -48(%rbp)
	jmp	.L394
.L398:
	movl	-112(%rbp), %edx
	movl	-96(%rbp), %eax
	addl	%edx, %eax
	cltq
	leaq	0(,%rax,8), %rdx
	movq	-56(%rbp), %rax
	addq	%rdx, %rax
	movq	(%rax), %rax
	movq	%rax, -40(%rbp)
	movl	-116(%rbp), %edx
	movl	-92(%rbp), %eax
	addl	%edx, %eax
	cltq
	leaq	0(,%rax,8), %rdx
	movq	-48(%rbp), %rax
	addq	%rdx, %rax
	movq	(%rax), %rax
	movq	%rax, -32(%rbp)
	movq	-40(%rbp), %rax
	cmpq	-32(%rbp), %rax
	jne	.L395
	movl	-116(%rbp), %eax
	cltq
	salq	$4, %rax
	movq	%rax, %rdx
	movq	-88(%rbp), %rax
	addq	%rdx, %rax
	movq	(%rax), %rax
	movq	%rax, -24(%rbp)
	movl	-112(%rbp), %eax
	cltq
	salq	$4, %rax
	movq	%rax, %rdx
	movq	-80(%rbp), %rax
	addq	%rdx, %rax
	movq	(%rax), %rax
	movq	%rax, -16(%rbp)
	movl	-148(%rbp), %edx
	movl	16(%rbp), %eax
	addl	%eax, %edx
	movq	-16(%rbp), %rax
	movl	%edx, %esi
	movq	%rax, %rdi
	call	flecs_switch_ensure
	movl	$0, -108(%rbp)
	jmp	.L396
.L397:
	movl	-152(%rbp), %edx
	movl	-108(%rbp), %eax
	addl	%eax, %edx
	movq	-24(%rbp), %rax
	movl	%edx, %esi
	movq	%rax, %rdi
	call	flecs_switch_get
	movq	%rax, -8(%rbp)
	movl	-148(%rbp), %edx
	movl	-108(%rbp), %eax
	leal	(%rdx,%rax), %ecx
	movq	-8(%rbp), %rdx
	movq	-16(%rbp), %rax
	movl	%ecx, %esi
	movq	%rax, %rdi
	call	flecs_switch_set
	addl	$1, -108(%rbp)
.L396:
	movl	-108(%rbp), %eax
	cmpl	16(%rbp), %eax
	jl	.L397
.L395:
	movq	-40(%rbp), %rax
	cmpq	-32(%rbp), %rax
	setbe	%al
	movzbl	%al, %eax
	addl	%eax, -112(%rbp)
	movq	-40(%rbp), %rax
	cmpq	-32(%rbp), %rax
	setnb	%al
	movzbl	%al, %eax
	addl	%eax, -116(%rbp)
.L394:
	movl	-112(%rbp), %eax
	cmpl	-100(%rbp), %eax
	jge	.L390
	movl	-116(%rbp), %eax
	cmpl	-104(%rbp), %eax
	jl	.L398
	jmp	.L390
.L399:
	nop
.L390:
	leave
	.cfi_def_cfa 7, 8
	ret
	.cfi_endproc
.LFE53:
	.size	move_switch_columns, .-move_switch_columns
	.type	move_bitset_columns, @function
move_bitset_columns:
.LFB54:
	.cfi_startproc
	endbr64
	pushq	%rbp
	.cfi_def_cfa_offset 16
	.cfi_offset 6, -16
	movq	%rsp, %rbp
	.cfi_def_cfa_register 6
	subq	$176, %rsp
	movq	%rdi, -136(%rbp)
	movq	%rsi, -144(%rbp)
	movl	%edx, -148(%rbp)
	movq	%rcx, -160(%rbp)
	movq	%r8, -168(%rbp)
	movl	%r9d, -152(%rbp)
	movl	$0, -116(%rbp)
	movq	-160(%rbp), %rax
	movl	124(%rax), %eax
	movl	%eax, -104(%rbp)
	movl	$0, -112(%rbp)
	movq	-136(%rbp), %rax
	movl	124(%rax), %eax
	movl	%eax, -100(%rbp)
	cmpl	$0, -104(%rbp)
	je	.L409
	cmpl	$0, -100(%rbp)
	je	.L409
	movq	-168(%rbp), %rax
	movq	32(%rax), %rax
	movq	%rax, -88(%rbp)
	movq	-144(%rbp), %rax
	movq	32(%rax), %rax
	movq	%rax, -80(%rbp)
	movq	-136(%rbp), %rax
	movq	8(%rax), %rax
	movq	%rax, -72(%rbp)
	movq	-160(%rbp), %rax
	movq	8(%rax), %rax
	movq	%rax, -64(%rbp)
	movq	-136(%rbp), %rax
	movl	128(%rax), %eax
	movl	%eax, -96(%rbp)
	movq	-160(%rbp), %rax
	movl	128(%rax), %eax
	movl	%eax, -92(%rbp)
	movq	-72(%rbp), %rax
	movl	$16, %edx
	movl	$8, %esi
	movq	%rax, %rdi
	call	_ecs_vector_first
	movq	%rax, -56(%rbp)
	movq	-64(%rbp), %rax
	movl	$16, %edx
	movl	$8, %esi
	movq	%rax, %rdi
	call	_ecs_vector_first
	movq	%rax, -48(%rbp)
	jmp	.L404
.L408:
	movl	-112(%rbp), %edx
	movl	-96(%rbp), %eax
	addl	%edx, %eax
	cltq
	leaq	0(,%rax,8), %rdx
	movq	-56(%rbp), %rax
	addq	%rdx, %rax
	movq	(%rax), %rax
	movq	%rax, -40(%rbp)
	movl	-116(%rbp), %edx
	movl	-92(%rbp), %eax
	addl	%edx, %eax
	cltq
	leaq	0(,%rax,8), %rdx
	movq	-48(%rbp), %rax
	addq	%rdx, %rax
	movq	(%rax), %rax
	movq	%rax, -32(%rbp)
	movq	-40(%rbp), %rax
	cmpq	-32(%rbp), %rax
	jne	.L405
	movl	-116(%rbp), %eax
	cltq
	salq	$4, %rax
	movq	%rax, %rdx
	movq	-88(%rbp), %rax
	addq	%rdx, %rax
	movq	%rax, -24(%rbp)
	movl	-112(%rbp), %eax
	cltq
	salq	$4, %rax
	movq	%rax, %rdx
	movq	-80(%rbp), %rax
	addq	%rdx, %rax
	movq	%rax, -16(%rbp)
	movl	-148(%rbp), %edx
	movl	16(%rbp), %eax
	addl	%eax, %edx
	movq	-16(%rbp), %rax
	movl	%edx, %esi
	movq	%rax, %rdi
	call	flecs_bitset_ensure
	movl	$0, -108(%rbp)
	jmp	.L406
.L407:
	movl	-152(%rbp), %edx
	movl	-108(%rbp), %eax
	addl	%eax, %edx
	movq	-24(%rbp), %rax
	movl	%edx, %esi
	movq	%rax, %rdi
	call	flecs_bitset_get
	movzbl	%al, %eax
	movq	%rax, -8(%rbp)
	cmpq	$0, -8(%rbp)
	setne	%al
	movzbl	%al, %edx
	movl	-148(%rbp), %ecx
	movl	-108(%rbp), %eax
	addl	%eax, %ecx
	movq	-16(%rbp), %rax
	movl	%ecx, %esi
	movq	%rax, %rdi
	call	flecs_bitset_set
	addl	$1, -108(%rbp)
.L406:
	movl	-108(%rbp), %eax
	cmpl	16(%rbp), %eax
	jl	.L407
.L405:
	movq	-40(%rbp), %rax
	cmpq	-32(%rbp), %rax
	setbe	%al
	movzbl	%al, %eax
	addl	%eax, -112(%rbp)
	movq	-40(%rbp), %rax
	cmpq	-32(%rbp), %rax
	setnb	%al
	movzbl	%al, %eax
	addl	%eax, -116(%rbp)
.L404:
	movl	-112(%rbp), %eax
	cmpl	-100(%rbp), %eax
	jge	.L400
	movl	-116(%rbp), %eax
	cmpl	-104(%rbp), %eax
	jl	.L408
	jmp	.L400
.L409:
	nop
.L400:
	leave
	.cfi_def_cfa 7, 8
	ret
	.cfi_endproc
.LFE54:
	.size	move_bitset_columns, .-move_bitset_columns
	.section	.rodata
	.align 8
.LC111:
	.string	"sw_column_count == 0 || sw_columns != NULL"
	.align 8
.LC112:
	.string	"sw_column_count == 0 || sw_columns != ((void *)0)"
	.align 8
.LC113:
	.string	"bs_column_count == 0 || bs_columns != NULL"
	.align 8
.LC114:
	.string	"bs_column_count == 0 || bs_columns != ((void *)0)"
.LC115:
	.string	"!column_count || columns"
	.align 8
.LC116:
	.string	"!sw_column_count || sw_columns"
	.align 8
.LC117:
	.string	"!bs_column_count || bs_columns"
	.text
	.type	ensure_data, @function
ensure_data:
.LFB55:
	.cfi_startproc
	endbr64
	pushq	%rbp
	.cfi_def_cfa_offset 16
	.cfi_offset 6, -16
	movq	%rsp, %rbp
	.cfi_def_cfa_register 6
	subq	$96, %rsp
	movq	%rdi, -56(%rbp)
	movq	%rsi, -64(%rbp)
	movq	%rdx, -72(%rbp)
	movq	%rcx, -80(%rbp)
	movq	%r8, -88(%rbp)
	movq	%r9, -96(%rbp)
	movq	-64(%rbp), %rax
	movl	20(%rax), %eax
	movl	%eax, -36(%rbp)
	movq	-64(%rbp), %rax
	movl	116(%rax), %eax
	movl	%eax, -32(%rbp)
	movq	-64(%rbp), %rax
	movl	124(%rax), %eax
	movl	%eax, -28(%rbp)
	movq	$0, -24(%rbp)
	movq	$0, -16(%rbp)
	movq	$0, -8(%rbp)
	movl	-36(%rbp), %eax
	orl	-32(%rbp), %eax
	orl	-28(%rbp), %eax
	testl	%eax, %eax
	je	.L411
	movq	-72(%rbp), %rax
	movq	16(%rax), %rax
	movq	%rax, -24(%rbp)
	movq	-72(%rbp), %rax
	movq	24(%rax), %rax
	movq	%rax, -16(%rbp)
	movq	-72(%rbp), %rax
	movq	32(%rax), %rax
	movq	%rax, -8(%rbp)
	cmpq	$0, -24(%rbp)
	jne	.L412
	cmpq	$0, -16(%rbp)
	jne	.L412
	cmpq	$0, -8(%rbp)
	jne	.L412
	movq	-72(%rbp), %rdx
	movq	-64(%rbp), %rcx
	movq	-56(%rbp), %rax
	movq	%rcx, %rsi
	movq	%rax, %rdi
	call	flecs_init_data
	movq	-72(%rbp), %rax
	movq	16(%rax), %rax
	movq	%rax, -24(%rbp)
	movq	-72(%rbp), %rax
	movq	24(%rax), %rax
	movq	%rax, -16(%rbp)
	movq	-72(%rbp), %rax
	movq	32(%rax), %rax
	movq	%rax, -8(%rbp)
	cmpl	$0, -32(%rbp)
	je	.L413
	cmpq	$0, -16(%rbp)
	je	.L414
.L413:
	movl	$1, %eax
	jmp	.L415
.L414:
	movl	$0, %eax
.L415:
	andl	$1, %eax
	movzbl	%al, %eax
	movl	$0, %r9d
	movl	$3424, %r8d
	leaq	.LC74(%rip), %rcx
	leaq	.LC111(%rip), %rdx
	movl	$7, %esi
	movl	%eax, %edi
	movl	$0, %eax
	call	_ecs_assert
	cmpl	$0, -32(%rbp)
	je	.L416
	cmpq	$0, -16(%rbp)
	jne	.L416
	leaq	__PRETTY_FUNCTION__.8371(%rip), %rcx
	movl	$3424, %edx
	leaq	.LC74(%rip), %rsi
	leaq	.LC112(%rip), %rdi
	call	__assert_fail@PLT
.L416:
	cmpl	$0, -28(%rbp)
	je	.L417
	cmpq	$0, -8(%rbp)
	je	.L418
.L417:
	movl	$1, %eax
	jmp	.L419
.L418:
	movl	$0, %eax
.L419:
	andl	$1, %eax
	movzbl	%al, %eax
	movl	$0, %r9d
	movl	$3426, %r8d
	leaq	.LC74(%rip), %rcx
	leaq	.LC113(%rip), %rdx
	movl	$7, %esi
	movl	%eax, %edi
	movl	$0, %eax
	call	_ecs_assert
	cmpl	$0, -28(%rbp)
	je	.L412
	cmpq	$0, -8(%rbp)
	jne	.L412
	leaq	__PRETTY_FUNCTION__.8371(%rip), %rcx
	movl	$3426, %edx
	leaq	.LC74(%rip), %rsi
	leaq	.LC114(%rip), %rdi
	call	__assert_fail@PLT
.L412:
	movq	-80(%rbp), %rax
	movl	-36(%rbp), %edx
	movl	%edx, (%rax)
	movq	-88(%rbp), %rax
	movl	-32(%rbp), %edx
	movl	%edx, (%rax)
	movq	-96(%rbp), %rax
	movl	-28(%rbp), %edx
	movl	%edx, (%rax)
	movq	16(%rbp), %rax
	movq	-24(%rbp), %rdx
	movq	%rdx, (%rax)
	movq	24(%rbp), %rax
	movq	-16(%rbp), %rdx
	movq	%rdx, (%rax)
	movq	32(%rbp), %rax
	movq	-8(%rbp), %rdx
	movq	%rdx, (%rax)
.L411:
	cmpl	$0, -36(%rbp)
	je	.L420
	cmpq	$0, -24(%rbp)
	je	.L421
.L420:
	movl	$1, %eax
	jmp	.L422
.L421:
	movl	$0, %eax
.L422:
	andl	$1, %eax
	movzbl	%al, %eax
	movl	$0, %r9d
	movl	$3438, %r8d
	leaq	.LC74(%rip), %rcx
	leaq	.LC115(%rip), %rdx
	movl	$7, %esi
	movl	%eax, %edi
	movl	$0, %eax
	call	_ecs_assert
	cmpl	$0, -36(%rbp)
	je	.L423
	cmpq	$0, -24(%rbp)
	jne	.L423
	leaq	__PRETTY_FUNCTION__.8371(%rip), %rcx
	movl	$3438, %edx
	leaq	.LC74(%rip), %rsi
	leaq	.LC115(%rip), %rdi
	call	__assert_fail@PLT
.L423:
	cmpl	$0, -32(%rbp)
	je	.L424
	cmpq	$0, -16(%rbp)
	je	.L425
.L424:
	movl	$1, %eax
	jmp	.L426
.L425:
	movl	$0, %eax
.L426:
	andl	$1, %eax
	movzbl	%al, %eax
	movl	$0, %r9d
	movl	$3439, %r8d
	leaq	.LC74(%rip), %rcx
	leaq	.LC116(%rip), %rdx
	movl	$7, %esi
	movl	%eax, %edi
	movl	$0, %eax
	call	_ecs_assert
	cmpl	$0, -32(%rbp)
	je	.L427
	cmpq	$0, -16(%rbp)
	jne	.L427
	leaq	__PRETTY_FUNCTION__.8371(%rip), %rcx
	movl	$3439, %edx
	leaq	.LC74(%rip), %rsi
	leaq	.LC116(%rip), %rdi
	call	__assert_fail@PLT
.L427:
	cmpl	$0, -28(%rbp)
	je	.L428
	cmpq	$0, -8(%rbp)
	je	.L429
.L428:
	movl	$1, %eax
	jmp	.L430
.L429:
	movl	$0, %eax
.L430:
	andl	$1, %eax
	movzbl	%al, %eax
	movl	$0, %r9d
	movl	$3440, %r8d
	leaq	.LC74(%rip), %rcx
	leaq	.LC117(%rip), %rdx
	movl	$7, %esi
	movl	%eax, %edi
	movl	$0, %eax
	call	_ecs_assert
	cmpl	$0, -28(%rbp)
	je	.L432
	cmpq	$0, -8(%rbp)
	jne	.L432
	leaq	__PRETTY_FUNCTION__.8371(%rip), %rcx
	movl	$3440, %edx
	leaq	.LC74(%rip), %rsi
	leaq	.LC117(%rip), %rdi
	call	__assert_fail@PLT
.L432:
	nop
	leave
	.cfi_def_cfa 7, 8
	ret
	.cfi_endproc
.LFE55:
	.size	ensure_data, .-ensure_data
	.section	.rodata
.LC118:
	.string	"new_size >= new_count"
.LC119:
	.string	"ctor != NULL"
.LC120:
	.string	"ctor != ((void *)0)"
	.align 8
.LC121:
	.string	"ecs_vector_size(column->data) == new_size"
	.text
	.type	grow_column, @function
grow_column:
.LFB56:
	.cfi_startproc
	endbr64
	pushq	%rbp
	.cfi_def_cfa_offset 16
	.cfi_offset 6, -16
	movq	%rsp, %rbp
	.cfi_def_cfa_register 6
	pushq	%r12
	pushq	%rbx
	subq	$144, %rsp
	.cfi_offset 12, -24
	.cfi_offset 3, -32
	movq	%rdi, -120(%rbp)
	movq	%rsi, -128(%rbp)
	movq	%rdx, -136(%rbp)
	movq	%rcx, -144(%rbp)
	movl	%r8d, -148(%rbp)
	movl	%r9d, -152(%rbp)
	movl	16(%rbp), %eax
	movb	%al, -156(%rbp)
	movq	%fs:40, %rax
	movq	%rax, -24(%rbp)
	xorl	%eax, %eax
	movq	-136(%rbp), %rax
	movq	(%rax), %rax
	movq	%rax, -88(%rbp)
	movq	-136(%rbp), %rax
	movzwl	10(%rax), %eax
	movw	%ax, -106(%rbp)
	movq	-136(%rbp), %rax
	movzwl	8(%rax), %eax
	cwtl
	movl	%eax, -104(%rbp)
	movq	-88(%rbp), %rax
	movq	%rax, %rdi
	call	ecs_vector_count
	movl	%eax, -100(%rbp)
	movq	-88(%rbp), %rax
	movq	%rax, %rdi
	call	ecs_vector_size
	movl	%eax, -96(%rbp)
	movl	-100(%rbp), %edx
	movl	-148(%rbp), %eax
	addl	%edx, %eax
	movl	%eax, -92(%rbp)
	movl	-152(%rbp), %eax
	cmpl	-96(%rbp), %eax
	setne	%al
	movb	%al, -107(%rbp)
	movl	-152(%rbp), %eax
	cmpl	-92(%rbp), %eax
	setge	%al
	movzbl	%al, %eax
	movl	$0, %r9d
	movl	$3462, %r8d
	leaq	.LC74(%rip), %rcx
	leaq	.LC118(%rip), %rdx
	movl	$7, %esi
	movl	%eax, %edi
	movl	$0, %eax
	call	_ecs_assert
	movl	-152(%rbp), %eax
	cmpl	-92(%rbp), %eax
	jge	.L434
	leaq	__PRETTY_FUNCTION__.8388(%rip), %rcx
	movl	$3462, %edx
	leaq	.LC74(%rip), %rsi
	leaq	.LC118(%rip), %rdi
	call	__assert_fail@PLT
.L434:
	cmpq	$0, -144(%rbp)
	je	.L435
	cmpl	$0, -100(%rbp)
	je	.L435
	cmpb	$0, -107(%rbp)
	je	.L435
	movq	-144(%rbp), %rax
	movq	24(%rax), %rax
	movq	%rax, -72(%rbp)
	cmpq	$0, -72(%rbp)
	je	.L435
	movq	-144(%rbp), %rax
	movq	(%rax), %rax
	movq	%rax, -64(%rbp)
	cmpq	$0, -64(%rbp)
	setne	%al
	movzbl	%al, %eax
	movl	$0, %r9d
	movl	$3469, %r8d
	leaq	.LC74(%rip), %rcx
	leaq	.LC119(%rip), %rdx
	movl	$7, %esi
	movl	%eax, %edi
	movl	$0, %eax
	call	_ecs_assert
	cmpq	$0, -64(%rbp)
	jne	.L436
	leaq	__PRETTY_FUNCTION__.8388(%rip), %rcx
	movl	$3469, %edx
	leaq	.LC74(%rip), %rsi
	leaq	.LC120(%rip), %rdi
	call	__assert_fail@PLT
.L436:
	movl	$16, %eax
	cmpw	$16, -106(%rbp)
	cmovge	-106(%rbp), %ax
	movswl	%ax, %ecx
	movl	-152(%rbp), %edx
	movl	-104(%rbp), %eax
	movl	%ecx, %esi
	movl	%eax, %edi
	call	_ecs_vector_new
	movq	%rax, -80(%rbp)
	movl	$16, %eax
	cmpw	$16, -106(%rbp)
	cmovge	-106(%rbp), %ax
	movswl	%ax, %edx
	movl	-92(%rbp), %ecx
	movl	-104(%rbp), %esi
	leaq	-80(%rbp), %rax
	movq	%rax, %rdi
	call	_ecs_vector_set_count
	movl	$16, %eax
	cmpw	$16, -106(%rbp)
	cmovge	-106(%rbp), %ax
	movswl	%ax, %edx
	movq	-88(%rbp), %rax
	movl	-104(%rbp), %ecx
	movl	%ecx, %esi
	movq	%rax, %rdi
	call	_ecs_vector_first
	movq	%rax, -56(%rbp)
	movl	$16, %eax
	cmpw	$16, -106(%rbp)
	cmovge	-106(%rbp), %ax
	movswl	%ax, %edx
	movq	-80(%rbp), %rax
	movl	-104(%rbp), %ecx
	movl	%ecx, %esi
	movq	%rax, %rdi
	call	_ecs_vector_first
	movq	%rax, -48(%rbp)
	movq	-144(%rbp), %rax
	movq	32(%rax), %r12
	cmpb	$0, -156(%rbp)
	je	.L437
	movl	-92(%rbp), %ebx
	jmp	.L438
.L437:
	movl	-100(%rbp), %ebx
.L438:
	movl	-104(%rbp), %eax
	cltq
	movq	%rax, %rdi
	call	flecs_to_size_t
	movq	%rax, %rdi
	movq	-144(%rbp), %rax
	movq	80(%rax), %rsi
	movq	-48(%rbp), %rcx
	movq	-128(%rbp), %rdx
	movq	-120(%rbp), %rax
	subq	$8, %rsp
	pushq	%r12
	movq	-64(%rbp), %r10
	movl	%ebx, %r9d
	movq	%rdi, %r8
	movq	%rax, %rdi
	call	*%r10
	addq	$16, %rsp
	movq	-144(%rbp), %rax
	movq	32(%rax), %rbx
	movl	-104(%rbp), %eax
	cltq
	movq	%rax, %rdi
	call	flecs_to_size_t
	movq	%rax, %rdi
	movq	-144(%rbp), %rax
	movq	80(%rax), %rsi
	movq	-56(%rbp), %r9
	movq	-48(%rbp), %r11
	movq	-128(%rbp), %rcx
	movq	-128(%rbp), %rdx
	movq	-120(%rbp), %rax
	subq	$8, %rsp
	pushq	%rbx
	movl	-100(%rbp), %r8d
	pushq	%r8
	pushq	%rdi
	movq	-72(%rbp), %r10
	movq	%r11, %r8
	movq	%rax, %rdi
	call	*%r10
	addq	$32, %rsp
	movq	-88(%rbp), %rax
	movq	%rax, %rdi
	call	ecs_vector_free
	movq	-80(%rbp), %rdx
	movq	-136(%rbp), %rax
	movq	%rdx, (%rax)
	jmp	.L439
.L435:
	cmpb	$0, -107(%rbp)
	je	.L440
	movl	$16, %eax
	cmpw	$16, -106(%rbp)
	cmovge	-106(%rbp), %ax
	movswl	%ax, %edx
	movl	-152(%rbp), %ecx
	movl	-104(%rbp), %esi
	leaq	-88(%rbp), %rax
	movq	%rax, %rdi
	call	_ecs_vector_set_size
.L440:
	movl	$16, %eax
	cmpw	$16, -106(%rbp)
	cmovge	-106(%rbp), %ax
	movswl	%ax, %edx
	movl	-148(%rbp), %ecx
	movl	-104(%rbp), %esi
	leaq	-88(%rbp), %rax
	movq	%rax, %rdi
	call	_ecs_vector_addn
	movq	%rax, -40(%rbp)
	cmpb	$0, -156(%rbp)
	je	.L441
	cmpq	$0, -144(%rbp)
	je	.L441
	movq	-144(%rbp), %rax
	movq	(%rax), %rax
	movq	%rax, -32(%rbp)
	cmpq	$0, -32(%rbp)
	je	.L441
	movq	-144(%rbp), %rax
	movq	32(%rax), %rbx
	movl	-104(%rbp), %eax
	cltq
	movq	%rax, %rdi
	call	flecs_to_size_t
	movq	%rax, %rcx
	movl	-100(%rbp), %eax
	cltq
	leaq	0(,%rax,8), %rdx
	movq	-128(%rbp), %rax
	leaq	(%rdx,%rax), %rdi
	movq	-144(%rbp), %rax
	movq	80(%rax), %rsi
	movl	-148(%rbp), %r8d
	movq	-40(%rbp), %rdx
	movq	-120(%rbp), %rax
	subq	$8, %rsp
	pushq	%rbx
	movq	-32(%rbp), %r10
	movl	%r8d, %r9d
	movq	%rcx, %r8
	movq	%rdx, %rcx
	movq	%rdi, %rdx
	movq	%rax, %rdi
	call	*%r10
	addq	$16, %rsp
.L441:
	movq	-88(%rbp), %rdx
	movq	-136(%rbp), %rax
	movq	%rdx, (%rax)
.L439:
	movq	-136(%rbp), %rax
	movq	(%rax), %rax
	movq	%rax, %rdi
	call	ecs_vector_size
	cmpl	%eax, -152(%rbp)
	sete	%al
	movzbl	%al, %eax
	movl	$0, %r9d
	movl	$3513, %r8d
	leaq	.LC74(%rip), %rcx
	leaq	.LC121(%rip), %rdx
	movl	$7, %esi
	movl	%eax, %edi
	movl	$0, %eax
	call	_ecs_assert
	movq	-136(%rbp), %rax
	movq	(%rax), %rax
	movq	%rax, %rdi
	call	ecs_vector_size
	cmpl	%eax, -152(%rbp)
	je	.L444
	leaq	__PRETTY_FUNCTION__.8388(%rip), %rcx
	movl	$3513, %edx
	leaq	.LC74(%rip), %rsi
	leaq	.LC121(%rip), %rdi
	call	__assert_fail@PLT
.L444:
	nop
	movq	-24(%rbp), %rax
	xorq	%fs:40, %rax
	je	.L443
	call	__stack_chk_fail@PLT
.L443:
	leaq	-16(%rbp), %rsp
	popq	%rbx
	popq	%r12
	popq	%rbp
	.cfi_def_cfa 7, 8
	ret
	.cfi_endproc
.LFE56:
	.size	grow_column, .-grow_column
	.section	.rodata
.LC122:
	.string	"data != NULL"
.LC123:
	.string	"data != ((void *)0)"
.LC124:
	.string	"r != NULL"
.LC125:
	.string	"r != ((void *)0)"
.LC126:
	.string	"e != NULL"
.LC127:
	.string	"e != ((void *)0)"
	.align 8
.LC128:
	.string	"ecs_vector_size(data->entities) == size"
	.align 8
.LC129:
	.string	"ecs_vector_size(columns[i].data) == size"
	.text
	.type	grow_data, @function
grow_data:
.LFB57:
	.cfi_startproc
	endbr64
	pushq	%rbp
	.cfi_def_cfa_offset 16
	.cfi_offset 6, -16
	movq	%rsp, %rbp
	.cfi_def_cfa_register 6
	subq	$176, %rsp
	movq	%rdi, -136(%rbp)
	movq	%rsi, -144(%rbp)
	movq	%rdx, -152(%rbp)
	movl	%ecx, -156(%rbp)
	movl	%r8d, -160(%rbp)
	movq	%r9, -168(%rbp)
	movq	%fs:40, %rax
	movq	%rax, -8(%rbp)
	xorl	%eax, %eax
	cmpq	$0, -144(%rbp)
	setne	%al
	movzbl	%al, %eax
	movl	$0, %r9d
	movl	$3526, %r8d
	leaq	.LC74(%rip), %rcx
	leaq	.LC93(%rip), %rdx
	movl	$7, %esi
	movl	%eax, %edi
	movl	$0, %eax
	call	_ecs_assert
	cmpq	$0, -144(%rbp)
	jne	.L446
	leaq	__PRETTY_FUNCTION__.8404(%rip), %rcx
	movl	$3526, %edx
	leaq	.LC74(%rip), %rsi
	leaq	.LC94(%rip), %rdi
	call	__assert_fail@PLT
.L446:
	cmpq	$0, -152(%rbp)
	setne	%al
	movzbl	%al, %eax
	movl	$0, %r9d
	movl	$3527, %r8d
	leaq	.LC74(%rip), %rcx
	leaq	.LC122(%rip), %rdx
	movl	$7, %esi
	movl	%eax, %edi
	movl	$0, %eax
	call	_ecs_assert
	cmpq	$0, -152(%rbp)
	jne	.L447
	leaq	__PRETTY_FUNCTION__.8404(%rip), %rcx
	movl	$3527, %edx
	leaq	.LC74(%rip), %rsi
	leaq	.LC123(%rip), %rdi
	call	__assert_fail@PLT
.L447:
	movq	-152(%rbp), %rax
	movq	%rax, %rdi
	call	flecs_table_data_count
	movl	%eax, -100(%rbp)
	movq	-144(%rbp), %rax
	movl	20(%rax), %eax
	movl	%eax, -116(%rbp)
	movq	-144(%rbp), %rax
	movl	116(%rax), %eax
	movl	%eax, -112(%rbp)
	movq	-144(%rbp), %rax
	movl	124(%rax), %eax
	movl	%eax, -108(%rbp)
	movq	$0, -96(%rbp)
	movq	$0, -88(%rbp)
	movq	$0, -80(%rbp)
	leaq	-108(%rbp), %r9
	leaq	-112(%rbp), %r8
	leaq	-116(%rbp), %rcx
	movq	-152(%rbp), %rdx
	movq	-144(%rbp), %rsi
	movq	-136(%rbp), %rax
	subq	$8, %rsp
	leaq	-80(%rbp), %rdi
	pushq	%rdi
	leaq	-88(%rbp), %rdi
	pushq	%rdi
	leaq	-96(%rbp), %rdi
	pushq	%rdi
	movq	%rax, %rdi
	call	ensure_data
	addq	$32, %rsp
	movq	-152(%rbp), %rax
	leaq	8(%rax), %rdi
	movl	-160(%rbp), %eax
	movl	%eax, %ecx
	movl	$16, %edx
	movl	$8, %esi
	call	_ecs_vector_set_size
	movq	-152(%rbp), %rax
	leaq	8(%rax), %rdi
	movl	-156(%rbp), %eax
	movl	%eax, %ecx
	movl	$16, %edx
	movl	$8, %esi
	call	_ecs_vector_addn
	movq	%rax, -64(%rbp)
	cmpq	$0, -64(%rbp)
	setne	%al
	movzbl	%al, %eax
	movl	$0, %r9d
	movl	$3542, %r8d
	leaq	.LC74(%rip), %rcx
	leaq	.LC124(%rip), %rdx
	movl	$7, %esi
	movl	%eax, %edi
	movl	$0, %eax
	call	_ecs_assert
	cmpq	$0, -64(%rbp)
	jne	.L448
	leaq	__PRETTY_FUNCTION__.8404(%rip), %rcx
	movl	$3542, %edx
	leaq	.LC74(%rip), %rsi
	leaq	.LC125(%rip), %rdi
	call	__assert_fail@PLT
.L448:
	movq	-152(%rbp), %rax
	movq	8(%rax), %rax
	movq	%rax, %rdi
	call	ecs_vector_size
	cmpl	%eax, -160(%rbp)
	jge	.L449
	movq	-152(%rbp), %rax
	movq	8(%rax), %rax
	movq	%rax, %rdi
	call	ecs_vector_size
	movl	%eax, -160(%rbp)
.L449:
	movq	-152(%rbp), %rax
	movl	-160(%rbp), %edx
	movl	%edx, %ecx
	movl	$16, %edx
	movl	$8, %esi
	movq	%rax, %rdi
	call	_ecs_vector_set_size
	movq	-152(%rbp), %rax
	movl	-156(%rbp), %edx
	movl	%edx, %ecx
	movl	$16, %edx
	movl	$8, %esi
	movq	%rax, %rdi
	call	_ecs_vector_addn
	movq	%rax, -56(%rbp)
	cmpq	$0, -56(%rbp)
	setne	%al
	movzbl	%al, %eax
	movl	$0, %r9d
	movl	$3550, %r8d
	leaq	.LC74(%rip), %rcx
	leaq	.LC126(%rip), %rdx
	movl	$7, %esi
	movl	%eax, %edi
	movl	$0, %eax
	call	_ecs_assert
	cmpq	$0, -56(%rbp)
	jne	.L450
	leaq	__PRETTY_FUNCTION__.8404(%rip), %rcx
	movl	$3550, %edx
	leaq	.LC74(%rip), %rsi
	leaq	.LC127(%rip), %rdi
	call	__assert_fail@PLT
.L450:
	movq	-152(%rbp), %rax
	movq	(%rax), %rax
	movq	%rax, %rdi
	call	ecs_vector_size
	cmpl	%eax, -160(%rbp)
	sete	%al
	movzbl	%al, %eax
	movl	$0, %r9d
	movl	$3551, %r8d
	leaq	.LC74(%rip), %rcx
	leaq	.LC128(%rip), %rdx
	movl	$7, %esi
	movl	%eax, %edi
	movl	$0, %eax
	call	_ecs_assert
	movq	-152(%rbp), %rax
	movq	(%rax), %rax
	movq	%rax, %rdi
	call	ecs_vector_size
	cmpl	%eax, -160(%rbp)
	je	.L451
	leaq	__PRETTY_FUNCTION__.8404(%rip), %rcx
	movl	$3551, %edx
	leaq	.LC74(%rip), %rsi
	leaq	.LC128(%rip), %rdi
	call	__assert_fail@PLT
.L451:
	cmpq	$0, -168(%rbp)
	je	.L452
	movl	$0, -104(%rbp)
	jmp	.L453
.L454:
	movl	-104(%rbp), %eax
	cltq
	leaq	0(,%rax,8), %rdx
	movq	-168(%rbp), %rax
	addq	%rdx, %rax
	movl	-104(%rbp), %edx
	movslq	%edx, %rdx
	leaq	0(,%rdx,8), %rcx
	movq	-56(%rbp), %rdx
	addq	%rcx, %rdx
	movq	(%rax), %rax
	movq	%rax, (%rdx)
	addl	$1, -104(%rbp)
.L453:
	movl	-104(%rbp), %eax
	cmpl	-156(%rbp), %eax
	jl	.L454
	jmp	.L455
.L452:
	movl	-156(%rbp), %eax
	sall	$3, %eax
	movslq	%eax, %rdx
	movq	-56(%rbp), %rax
	movl	$0, %esi
	movq	%rax, %rdi
	call	memset@PLT
.L455:
	movl	-156(%rbp), %eax
	sall	$3, %eax
	movslq	%eax, %rdx
	movq	-64(%rbp), %rax
	movl	$0, %esi
	movq	%rax, %rdi
	call	memset@PLT
	movq	-144(%rbp), %rax
	movq	32(%rax), %rax
	movq	%rax, -48(%rbp)
	movq	-152(%rbp), %rax
	movq	(%rax), %rax
	movl	$16, %edx
	movl	$8, %esi
	movq	%rax, %rdi
	call	_ecs_vector_first
	movq	%rax, -40(%rbp)
	movl	$0, -104(%rbp)
	jmp	.L456
.L460:
	movq	-96(%rbp), %rax
	movl	-104(%rbp), %edx
	movslq	%edx, %rdx
	salq	$4, %rdx
	addq	%rdx, %rax
	movq	%rax, -16(%rbp)
	movq	-16(%rbp), %rax
	movzwl	8(%rax), %eax
	testw	%ax, %ax
	je	.L468
	movq	$0, -72(%rbp)
	cmpq	$0, -48(%rbp)
	je	.L459
	movl	-104(%rbp), %eax
	cltq
	leaq	0(,%rax,8), %rdx
	movq	-48(%rbp), %rax
	addq	%rdx, %rax
	movq	(%rax), %rax
	movq	%rax, -72(%rbp)
.L459:
	movl	-160(%rbp), %r8d
	movl	-156(%rbp), %edi
	movq	-72(%rbp), %rcx
	movq	-16(%rbp), %rdx
	movq	-40(%rbp), %rsi
	movq	-136(%rbp), %rax
	subq	$8, %rsp
	pushq	$1
	movl	%r8d, %r9d
	movl	%edi, %r8d
	movq	%rax, %rdi
	call	grow_column
	addq	$16, %rsp
	movq	-96(%rbp), %rax
	movl	-104(%rbp), %edx
	movslq	%edx, %rdx
	salq	$4, %rdx
	addq	%rdx, %rax
	movq	(%rax), %rax
	movq	%rax, %rdi
	call	ecs_vector_size
	cmpl	%eax, -160(%rbp)
	sete	%al
	movzbl	%al, %eax
	movl	$0, %r9d
	movl	$3579, %r8d
	leaq	.LC74(%rip), %rcx
	leaq	.LC129(%rip), %rdx
	movl	$7, %esi
	movl	%eax, %edi
	movl	$0, %eax
	call	_ecs_assert
	movq	-96(%rbp), %rax
	movl	-104(%rbp), %edx
	movslq	%edx, %rdx
	salq	$4, %rdx
	addq	%rdx, %rax
	movq	(%rax), %rax
	movq	%rax, %rdi
	call	ecs_vector_size
	cmpl	%eax, -160(%rbp)
	je	.L458
	leaq	__PRETTY_FUNCTION__.8404(%rip), %rcx
	movl	$3579, %edx
	leaq	.LC74(%rip), %rsi
	leaq	.LC129(%rip), %rdi
	call	__assert_fail@PLT
.L468:
	nop
.L458:
	addl	$1, -104(%rbp)
.L456:
	movl	-116(%rbp), %eax
	cmpl	%eax, -104(%rbp)
	jl	.L460
	movl	$0, -104(%rbp)
	jmp	.L461
.L462:
	movq	-88(%rbp), %rax
	movl	-104(%rbp), %edx
	movslq	%edx, %rdx
	salq	$4, %rdx
	addq	%rdx, %rax
	movq	(%rax), %rax
	movq	%rax, -24(%rbp)
	movl	-156(%rbp), %edx
	movq	-24(%rbp), %rax
	movl	%edx, %esi
	movq	%rax, %rdi
	call	flecs_switch_addn
	addl	$1, -104(%rbp)
.L461:
	movl	-112(%rbp), %eax
	cmpl	%eax, -104(%rbp)
	jl	.L462
	movl	$0, -104(%rbp)
	jmp	.L463
.L464:
	movq	-80(%rbp), %rax
	movl	-104(%rbp), %edx
	movslq	%edx, %rdx
	salq	$4, %rdx
	addq	%rdx, %rax
	movq	%rax, -32(%rbp)
	movl	-156(%rbp), %edx
	movq	-32(%rbp), %rax
	movl	%edx, %esi
	movq	%rax, %rdi
	call	flecs_bitset_addn
	addl	$1, -104(%rbp)
.L463:
	movl	-108(%rbp), %eax
	cmpl	%eax, -104(%rbp)
	jl	.L464
	movq	-144(%rbp), %rax
	movl	$0, %esi
	movq	%rax, %rdi
	call	mark_table_dirty
	movq	-136(%rbp), %rax
	movzbl	681(%rax), %eax
	xorl	$1, %eax
	testb	%al, %al
	je	.L465
	cmpl	$0, -100(%rbp)
	jne	.L465
	movq	-144(%rbp), %rsi
	movq	-136(%rbp), %rax
	movl	$1, %ecx
	movl	$0, %edx
	movq	%rax, %rdi
	call	table_activate
.L465:
	movq	-144(%rbp), %rax
	movl	112(%rax), %eax
	leal	1(%rax), %edx
	movq	-144(%rbp), %rax
	movl	%edx, 112(%rax)
	movl	-100(%rbp), %eax
	movq	-8(%rbp), %rcx
	xorq	%fs:40, %rcx
	je	.L467
	call	__stack_chk_fail@PLT
.L467:
	leave
	.cfi_def_cfa 7, 8
	ret
	.cfi_endproc
.LFE57:
	.size	grow_data, .-grow_data
	.type	fast_append, @function
fast_append:
.LFB58:
	.cfi_startproc
	endbr64
	pushq	%rbp
	.cfi_def_cfa_offset 16
	.cfi_offset 6, -16
	movq	%rsp, %rbp
	.cfi_def_cfa_register 6
	subq	$32, %rsp
	movq	%rdi, -24(%rbp)
	movl	%esi, -28(%rbp)
	movl	$0, -12(%rbp)
	jmp	.L470
.L472:
	movl	-12(%rbp), %eax
	cltq
	salq	$4, %rax
	movq	%rax, %rdx
	movq	-24(%rbp), %rax
	addq	%rdx, %rax
	movq	%rax, -8(%rbp)
	movq	-8(%rbp), %rax
	movzwl	8(%rax), %eax
	movw	%ax, -16(%rbp)
	cmpw	$0, -16(%rbp)
	je	.L471
	movq	-8(%rbp), %rax
	movzwl	10(%rax), %eax
	movw	%ax, -14(%rbp)
	movl	$16, %eax
	cmpw	$16, -14(%rbp)
	cmovge	-14(%rbp), %ax
	movswl	%ax, %edx
	movswl	-16(%rbp), %ecx
	movq	-8(%rbp), %rax
	movl	%ecx, %esi
	movq	%rax, %rdi
	call	_ecs_vector_add
.L471:
	addl	$1, -12(%rbp)
.L470:
	movl	-12(%rbp), %eax
	cmpl	-28(%rbp), %eax
	jl	.L472
	nop
	nop
	leave
	.cfi_def_cfa 7, 8
	ret
	.cfi_endproc
.LFE58:
	.size	fast_append, .-fast_append
	.section	.rodata
.LC130:
	.string	"count >= 0"
	.align 8
.LC131:
	.string	"ecs_vector_size(columns[i].data) == ecs_vector_size(data->entities)"
	.align 8
.LC132:
	.string	"ecs_vector_count(columns[i].data) == ecs_vector_count(data->entities)"
.LC133:
	.string	"sw_columns != NULL"
.LC134:
	.string	"sw_columns != ((void *)0)"
.LC135:
	.string	"bs_columns != NULL"
.LC136:
	.string	"bs_columns != ((void *)0)"
	.text
	.globl	flecs_table_append
	.type	flecs_table_append, @function
flecs_table_append:
.LFB59:
	.cfi_startproc
	endbr64
	pushq	%rbp
	.cfi_def_cfa_offset 16
	.cfi_offset 6, -16
	movq	%rsp, %rbp
	.cfi_def_cfa_register 6
	pushq	%rbx
	subq	$184, %rsp
	.cfi_offset 3, -24
	movq	%rdi, -152(%rbp)
	movq	%rsi, -160(%rbp)
	movq	%rdx, -168(%rbp)
	movq	%rcx, -176(%rbp)
	movq	%r8, -184(%rbp)
	movl	%r9d, %eax
	movb	%al, -188(%rbp)
	movq	%fs:40, %rax
	movq	%rax, -24(%rbp)
	xorl	%eax, %eax
	cmpq	$0, -160(%rbp)
	setne	%al
	movzbl	%al, %eax
	movl	$0, %r9d
	movl	$3633, %r8d
	leaq	.LC74(%rip), %rcx
	leaq	.LC93(%rip), %rdx
	movl	$7, %esi
	movl	%eax, %edi
	movl	$0, %eax
	call	_ecs_assert
	cmpq	$0, -160(%rbp)
	jne	.L474
	leaq	__PRETTY_FUNCTION__.8453(%rip), %rcx
	movl	$3633, %edx
	leaq	.LC74(%rip), %rsi
	leaq	.LC94(%rip), %rdi
	call	__assert_fail@PLT
.L474:
	cmpq	$0, -168(%rbp)
	setne	%al
	movzbl	%al, %eax
	movl	$0, %r9d
	movl	$3634, %r8d
	leaq	.LC74(%rip), %rcx
	leaq	.LC122(%rip), %rdx
	movl	$7, %esi
	movl	%eax, %edi
	movl	$0, %eax
	call	_ecs_assert
	cmpq	$0, -168(%rbp)
	jne	.L475
	leaq	__PRETTY_FUNCTION__.8453(%rip), %rcx
	movl	$3634, %edx
	leaq	.LC74(%rip), %rsi
	leaq	.LC123(%rip), %rdi
	call	__assert_fail@PLT
.L475:
	movq	-160(%rbp), %rax
	movl	132(%rax), %eax
	testl	%eax, %eax
	sete	%al
	movzbl	%al, %eax
	movl	$0, %r9d
	movl	$3635, %r8d
	leaq	.LC74(%rip), %rcx
	leaq	.LC95(%rip), %rdx
	movl	$71, %esi
	movl	%eax, %edi
	movl	$0, %eax
	call	_ecs_assert
	movq	-160(%rbp), %rax
	movl	132(%rax), %eax
	testl	%eax, %eax
	je	.L476
	leaq	__PRETTY_FUNCTION__.8453(%rip), %rcx
	movl	$3635, %edx
	leaq	.LC74(%rip), %rsi
	leaq	.LC95(%rip), %rdi
	call	__assert_fail@PLT
.L476:
	movq	-168(%rbp), %rax
	movq	(%rax), %rax
	movq	%rax, %rdi
	call	ecs_vector_count
	movl	%eax, -120(%rbp)
	movq	-168(%rbp), %rax
	movq	(%rax), %rax
	movq	%rax, %rdi
	call	ecs_vector_size
	movl	%eax, -116(%rbp)
	movq	-160(%rbp), %rax
	movl	20(%rax), %eax
	movl	%eax, -136(%rbp)
	movq	-160(%rbp), %rax
	movl	116(%rax), %eax
	movl	%eax, -132(%rbp)
	movq	-160(%rbp), %rax
	movl	124(%rax), %eax
	movl	%eax, -128(%rbp)
	movq	$0, -112(%rbp)
	movq	$0, -104(%rbp)
	movq	$0, -96(%rbp)
	leaq	-128(%rbp), %r9
	leaq	-132(%rbp), %r8
	leaq	-136(%rbp), %rcx
	movq	-168(%rbp), %rdx
	movq	-160(%rbp), %rsi
	movq	-152(%rbp), %rax
	subq	$8, %rsp
	leaq	-96(%rbp), %rdi
	pushq	%rdi
	leaq	-104(%rbp), %rdi
	pushq	%rdi
	leaq	-112(%rbp), %rdi
	pushq	%rdi
	movq	%rax, %rdi
	call	ensure_data
	addq	$32, %rsp
	movq	-168(%rbp), %rax
	movl	$16, %edx
	movl	$8, %esi
	movq	%rax, %rdi
	call	_ecs_vector_add
	movq	%rax, -80(%rbp)
	cmpq	$0, -80(%rbp)
	setne	%al
	movzbl	%al, %eax
	movl	$0, %r9d
	movl	$3654, %r8d
	leaq	.LC74(%rip), %rcx
	leaq	.LC126(%rip), %rdx
	movl	$7, %esi
	movl	%eax, %edi
	movl	$0, %eax
	call	_ecs_assert
	cmpq	$0, -80(%rbp)
	jne	.L477
	leaq	__PRETTY_FUNCTION__.8453(%rip), %rcx
	movl	$3654, %edx
	leaq	.LC74(%rip), %rsi
	leaq	.LC127(%rip), %rdi
	call	__assert_fail@PLT
.L477:
	movq	-80(%rbp), %rax
	movq	-176(%rbp), %rdx
	movq	%rdx, (%rax)
	movq	-160(%rbp), %rax
	movl	112(%rax), %edx
	movl	-120(%rbp), %eax
	cmpl	-116(%rbp), %eax
	sete	%al
	movzbl	%al, %eax
	addl	%eax, %edx
	movq	-160(%rbp), %rax
	movl	%edx, 112(%rax)
	movq	-168(%rbp), %rax
	addq	$8, %rax
	movl	$16, %edx
	movl	$8, %esi
	movq	%rax, %rdi
	call	_ecs_vector_add
	movq	%rax, -72(%rbp)
	cmpq	$0, -72(%rbp)
	setne	%al
	movzbl	%al, %eax
	movl	$0, %r9d
	movl	$3663, %r8d
	leaq	.LC74(%rip), %rcx
	leaq	.LC124(%rip), %rdx
	movl	$7, %esi
	movl	%eax, %edi
	movl	$0, %eax
	call	_ecs_assert
	cmpq	$0, -72(%rbp)
	jne	.L478
	leaq	__PRETTY_FUNCTION__.8453(%rip), %rcx
	movl	$3663, %edx
	leaq	.LC74(%rip), %rsi
	leaq	.LC125(%rip), %rdi
	call	__assert_fail@PLT
.L478:
	movq	-72(%rbp), %rax
	movq	-184(%rbp), %rdx
	movq	%rdx, (%rax)
	movq	-160(%rbp), %rax
	movl	$0, %esi
	movq	%rax, %rdi
	call	mark_table_dirty
	movq	-152(%rbp), %rax
	movzbl	681(%rax), %eax
	xorl	$1, %eax
	testb	%al, %al
	je	.L479
	cmpl	$0, -120(%rbp)
	jne	.L479
	movq	-160(%rbp), %rsi
	movq	-152(%rbp), %rax
	movl	$1, %ecx
	movl	$0, %edx
	movq	%rax, %rdi
	call	table_activate
.L479:
	movl	-120(%rbp), %eax
	notl	%eax
	shrl	$31, %eax
	movzbl	%al, %eax
	movl	$0, %r9d
	movl	$3675, %r8d
	leaq	.LC74(%rip), %rcx
	leaq	.LC130(%rip), %rdx
	movl	$7, %esi
	movl	%eax, %edi
	movl	$0, %eax
	call	_ecs_assert
	cmpl	$0, -120(%rbp)
	jns	.L480
	leaq	__PRETTY_FUNCTION__.8453(%rip), %rcx
	movl	$3675, %edx
	leaq	.LC74(%rip), %rsi
	leaq	.LC130(%rip), %rdi
	call	__assert_fail@PLT
.L480:
	movq	-160(%rbp), %rax
	movl	16(%rax), %eax
	andl	$196992, %eax
	testl	%eax, %eax
	jne	.L481
	movl	-136(%rbp), %edx
	movq	-112(%rbp), %rax
	movl	%edx, %esi
	movq	%rax, %rdi
	call	fast_append
	movl	-120(%rbp), %eax
	jmp	.L495
.L481:
	movq	-160(%rbp), %rax
	movq	32(%rax), %rax
	movq	%rax, -64(%rbp)
	movq	-168(%rbp), %rax
	movq	(%rax), %rax
	movl	$16, %edx
	movl	$8, %esi
	movq	%rax, %rdi
	call	_ecs_vector_first
	movq	%rax, -56(%rbp)
	movq	-168(%rbp), %rax
	movq	(%rax), %rax
	movq	%rax, %rdi
	call	ecs_vector_size
	movl	%eax, -116(%rbp)
	movl	$0, -124(%rbp)
	jmp	.L483
.L488:
	movq	-112(%rbp), %rax
	movl	-124(%rbp), %edx
	movslq	%edx, %rdx
	salq	$4, %rdx
	addq	%rdx, %rax
	movq	%rax, -32(%rbp)
	movq	-32(%rbp), %rax
	movzwl	8(%rax), %eax
	testw	%ax, %ax
	je	.L497
	movq	$0, -88(%rbp)
	cmpq	$0, -64(%rbp)
	je	.L486
	movl	-124(%rbp), %eax
	cltq
	leaq	0(,%rax,8), %rdx
	movq	-64(%rbp), %rax
	addq	%rdx, %rax
	movq	(%rax), %rax
	movq	%rax, -88(%rbp)
.L486:
	movzbl	-188(%rbp), %edi
	movl	-116(%rbp), %r8d
	movq	-88(%rbp), %rcx
	movq	-32(%rbp), %rdx
	movq	-56(%rbp), %rsi
	movq	-152(%rbp), %rax
	subq	$8, %rsp
	pushq	%rdi
	movl	%r8d, %r9d
	movl	$1, %r8d
	movq	%rax, %rdi
	call	grow_column
	addq	$16, %rsp
	movq	-112(%rbp), %rax
	movl	-124(%rbp), %edx
	movslq	%edx, %rdx
	salq	$4, %rdx
	addq	%rdx, %rax
	movq	(%rax), %rax
	movq	%rax, %rdi
	call	ecs_vector_size
	movl	%eax, %ebx
	movq	-168(%rbp), %rax
	movq	(%rax), %rax
	movq	%rax, %rdi
	call	ecs_vector_size
	cmpl	%eax, %ebx
	sete	%al
	movzbl	%al, %eax
	movl	$0, %r9d
	movl	$3707, %r8d
	leaq	.LC74(%rip), %rcx
	leaq	.LC131(%rip), %rdx
	movl	$7, %esi
	movl	%eax, %edi
	movl	$0, %eax
	call	_ecs_assert
	movq	-112(%rbp), %rax
	movl	-124(%rbp), %edx
	movslq	%edx, %rdx
	salq	$4, %rdx
	addq	%rdx, %rax
	movq	(%rax), %rax
	movq	%rax, %rdi
	call	ecs_vector_size
	movl	%eax, %ebx
	movq	-168(%rbp), %rax
	movq	(%rax), %rax
	movq	%rax, %rdi
	call	ecs_vector_size
	cmpl	%eax, %ebx
	je	.L487
	leaq	__PRETTY_FUNCTION__.8453(%rip), %rcx
	movl	$3707, %edx
	leaq	.LC74(%rip), %rsi
	leaq	.LC131(%rip), %rdi
	call	__assert_fail@PLT
.L487:
	movq	-112(%rbp), %rax
	movl	-124(%rbp), %edx
	movslq	%edx, %rdx
	salq	$4, %rdx
	addq	%rdx, %rax
	movq	(%rax), %rax
	movq	%rax, %rdi
	call	ecs_vector_count
	movl	%eax, %ebx
	movq	-168(%rbp), %rax
	movq	(%rax), %rax
	movq	%rax, %rdi
	call	ecs_vector_count
	cmpl	%eax, %ebx
	sete	%al
	movzbl	%al, %eax
	movl	$0, %r9d
	movl	$3711, %r8d
	leaq	.LC74(%rip), %rcx
	leaq	.LC132(%rip), %rdx
	movl	$7, %esi
	movl	%eax, %edi
	movl	$0, %eax
	call	_ecs_assert
	movq	-112(%rbp), %rax
	movl	-124(%rbp), %edx
	movslq	%edx, %rdx
	salq	$4, %rdx
	addq	%rdx, %rax
	movq	(%rax), %rax
	movq	%rax, %rdi
	call	ecs_vector_count
	movl	%eax, %ebx
	movq	-168(%rbp), %rax
	movq	(%rax), %rax
	movq	%rax, %rdi
	call	ecs_vector_count
	cmpl	%eax, %ebx
	je	.L485
	leaq	__PRETTY_FUNCTION__.8453(%rip), %rcx
	movl	$3711, %edx
	leaq	.LC74(%rip), %rsi
	leaq	.LC132(%rip), %rdi
	call	__assert_fail@PLT
.L497:
	nop
.L485:
	addl	$1, -124(%rbp)
.L483:
	movl	-136(%rbp), %eax
	cmpl	%eax, -124(%rbp)
	jl	.L488
	movl	$0, -124(%rbp)
	jmp	.L489
.L491:
	movq	-104(%rbp), %rax
	testq	%rax, %rax
	setne	%al
	movzbl	%al, %eax
	movl	$0, %r9d
	movl	$3718, %r8d
	leaq	.LC74(%rip), %rcx
	leaq	.LC133(%rip), %rdx
	movl	$7, %esi
	movl	%eax, %edi
	movl	$0, %eax
	call	_ecs_assert
	movq	-104(%rbp), %rax
	testq	%rax, %rax
	jne	.L490
	leaq	__PRETTY_FUNCTION__.8453(%rip), %rcx
	movl	$3718, %edx
	leaq	.LC74(%rip), %rsi
	leaq	.LC134(%rip), %rdi
	call	__assert_fail@PLT
.L490:
	movq	-104(%rbp), %rax
	movl	-124(%rbp), %edx
	movslq	%edx, %rdx
	salq	$4, %rdx
	addq	%rdx, %rax
	movq	(%rax), %rax
	movq	%rax, -40(%rbp)
	movq	-40(%rbp), %rax
	movq	%rax, %rdi
	call	flecs_switch_add
	movq	-112(%rbp), %rdx
	movq	-160(%rbp), %rax
	movl	120(%rax), %ecx
	movl	-124(%rbp), %eax
	addl	%ecx, %eax
	cltq
	salq	$4, %rax
	leaq	(%rdx,%rax), %rbx
	movq	-40(%rbp), %rax
	movq	%rax, %rdi
	call	flecs_switch_values
	movq	%rax, (%rbx)
	addl	$1, -124(%rbp)
.L489:
	movl	-132(%rbp), %eax
	cmpl	%eax, -124(%rbp)
	jl	.L491
	movl	$0, -124(%rbp)
	jmp	.L492
.L494:
	movq	-96(%rbp), %rax
	testq	%rax, %rax
	setne	%al
	movzbl	%al, %eax
	movl	$0, %r9d
	movl	$3726, %r8d
	leaq	.LC74(%rip), %rcx
	leaq	.LC135(%rip), %rdx
	movl	$7, %esi
	movl	%eax, %edi
	movl	$0, %eax
	call	_ecs_assert
	movq	-96(%rbp), %rax
	testq	%rax, %rax
	jne	.L493
	leaq	__PRETTY_FUNCTION__.8453(%rip), %rcx
	movl	$3726, %edx
	leaq	.LC74(%rip), %rsi
	leaq	.LC136(%rip), %rdi
	call	__assert_fail@PLT
.L493:
	movq	-96(%rbp), %rax
	movl	-124(%rbp), %edx
	movslq	%edx, %rdx
	salq	$4, %rdx
	addq	%rdx, %rax
	movq	%rax, -48(%rbp)
	movq	-48(%rbp), %rax
	movl	$1, %esi
	movq	%rax, %rdi
	call	flecs_bitset_addn
	addl	$1, -124(%rbp)
.L492:
	movl	-128(%rbp), %eax
	cmpl	%eax, -124(%rbp)
	jl	.L494
	movl	-120(%rbp), %eax
.L495:
	movq	-24(%rbp), %rbx
	xorq	%fs:40, %rbx
	je	.L496
	call	__stack_chk_fail@PLT
.L496:
	movq	-8(%rbp), %rbx
	leave
	.cfi_def_cfa 7, 8
	ret
	.cfi_endproc
.LFE59:
	.size	flecs_table_append, .-flecs_table_append
	.type	fast_delete_last, @function
fast_delete_last:
.LFB60:
	.cfi_startproc
	endbr64
	pushq	%rbp
	.cfi_def_cfa_offset 16
	.cfi_offset 6, -16
	movq	%rsp, %rbp
	.cfi_def_cfa_register 6
	subq	$32, %rsp
	movq	%rdi, -24(%rbp)
	movl	%esi, -28(%rbp)
	movl	$0, -12(%rbp)
	jmp	.L499
.L500:
	movl	-12(%rbp), %eax
	cltq
	salq	$4, %rax
	movq	%rax, %rdx
	movq	-24(%rbp), %rax
	addq	%rdx, %rax
	movq	%rax, -8(%rbp)
	movq	-8(%rbp), %rax
	movq	(%rax), %rax
	movq	%rax, %rdi
	call	ecs_vector_remove_last
	addl	$1, -12(%rbp)
.L499:
	movl	-12(%rbp), %eax
	cmpl	-28(%rbp), %eax
	jl	.L500
	nop
	nop
	leave
	.cfi_def_cfa 7, 8
	ret
	.cfi_endproc
.LFE60:
	.size	fast_delete_last, .-fast_delete_last
	.type	fast_delete, @function
fast_delete:
.LFB61:
	.cfi_startproc
	endbr64
	pushq	%rbp
	.cfi_def_cfa_offset 16
	.cfi_offset 6, -16
	movq	%rsp, %rbp
	.cfi_def_cfa_register 6
	subq	$32, %rsp
	movq	%rdi, -24(%rbp)
	movl	%esi, -28(%rbp)
	movl	%edx, -32(%rbp)
	movl	$0, -12(%rbp)
	jmp	.L502
.L504:
	movl	-12(%rbp), %eax
	cltq
	salq	$4, %rax
	movq	%rax, %rdx
	movq	-24(%rbp), %rax
	addq	%rdx, %rax
	movq	%rax, -8(%rbp)
	movq	-8(%rbp), %rax
	movzwl	8(%rax), %eax
	movw	%ax, -16(%rbp)
	cmpw	$0, -16(%rbp)
	je	.L503
	movq	-8(%rbp), %rax
	movzwl	10(%rax), %eax
	movw	%ax, -14(%rbp)
	movl	$16, %eax
	cmpw	$16, -14(%rbp)
	cmovge	-14(%rbp), %ax
	movswl	%ax, %edx
	movswl	-16(%rbp), %esi
	movq	-8(%rbp), %rax
	movq	(%rax), %rax
	movl	-32(%rbp), %ecx
	movq	%rax, %rdi
	call	_ecs_vector_remove
.L503:
	addl	$1, -12(%rbp)
.L502:
	movl	-12(%rbp), %eax
	cmpl	-28(%rbp), %eax
	jl	.L504
	nop
	nop
	leave
	.cfi_def_cfa 7, 8
	ret
	.cfi_endproc
.LFE61:
	.size	fast_delete, .-fast_delete
	.section	.rodata
.LC137:
	.string	"world != NULL"
.LC138:
	.string	"world != ((void *)0)"
.LC139:
	.string	"count > 0"
.LC140:
	.string	"index <= count"
	.align 8
.LC141:
	.string	"count < ecs_vector_count(v_records)"
.LC142:
	.string	"record_to_move->table != NULL"
	.align 8
.LC143:
	.string	"record_to_move->table != ((void *)0)"
	.align 8
.LC144:
	.string	"record_to_move->table == table"
.LC145:
	.string	"c_info_array != NULL"
.LC146:
	.string	"c_info_array != ((void *)0)"
	.text
	.globl	flecs_table_delete
	.type	flecs_table_delete, @function
flecs_table_delete:
.LFB62:
	.cfi_startproc
	endbr64
	pushq	%rbp
	.cfi_def_cfa_offset 16
	.cfi_offset 6, -16
	movq	%rsp, %rbp
	.cfi_def_cfa_register 6
	pushq	%r12
	pushq	%rbx
	subq	$240, %rsp
	.cfi_offset 12, -24
	.cfi_offset 3, -32
	movq	%rdi, -232(%rbp)
	movq	%rsi, -240(%rbp)
	movq	%rdx, -248(%rbp)
	movl	%ecx, -252(%rbp)
	movl	%r8d, %eax
	movb	%al, -256(%rbp)
	movq	%fs:40, %rax
	movq	%rax, -24(%rbp)
	xorl	%eax, %eax
	cmpq	$0, -232(%rbp)
	setne	%al
	movzbl	%al, %eax
	movl	$0, %r9d
	movl	$3770, %r8d
	leaq	.LC74(%rip), %rcx
	leaq	.LC137(%rip), %rdx
	movl	$7, %esi
	movl	%eax, %edi
	movl	$0, %eax
	call	_ecs_assert
	cmpq	$0, -232(%rbp)
	jne	.L506
	leaq	__PRETTY_FUNCTION__.8509(%rip), %rcx
	movl	$3770, %edx
	leaq	.LC74(%rip), %rsi
	leaq	.LC138(%rip), %rdi
	call	__assert_fail@PLT
.L506:
	cmpq	$0, -240(%rbp)
	setne	%al
	movzbl	%al, %eax
	movl	$0, %r9d
	movl	$3771, %r8d
	leaq	.LC74(%rip), %rcx
	leaq	.LC93(%rip), %rdx
	movl	$7, %esi
	movl	%eax, %edi
	movl	$0, %eax
	call	_ecs_assert
	cmpq	$0, -240(%rbp)
	jne	.L507
	leaq	__PRETTY_FUNCTION__.8509(%rip), %rcx
	movl	$3771, %edx
	leaq	.LC74(%rip), %rsi
	leaq	.LC94(%rip), %rdi
	call	__assert_fail@PLT
.L507:
	cmpq	$0, -248(%rbp)
	setne	%al
	movzbl	%al, %eax
	movl	$0, %r9d
	movl	$3772, %r8d
	leaq	.LC74(%rip), %rcx
	leaq	.LC122(%rip), %rdx
	movl	$7, %esi
	movl	%eax, %edi
	movl	$0, %eax
	call	_ecs_assert
	cmpq	$0, -248(%rbp)
	jne	.L508
	leaq	__PRETTY_FUNCTION__.8509(%rip), %rcx
	movl	$3772, %edx
	leaq	.LC74(%rip), %rsi
	leaq	.LC123(%rip), %rdi
	call	__assert_fail@PLT
.L508:
	movq	-240(%rbp), %rax
	movl	132(%rax), %eax
	testl	%eax, %eax
	sete	%al
	movzbl	%al, %eax
	movl	$0, %r9d
	movl	$3773, %r8d
	leaq	.LC74(%rip), %rcx
	leaq	.LC95(%rip), %rdx
	movl	$71, %esi
	movl	%eax, %edi
	movl	$0, %eax
	call	_ecs_assert
	movq	-240(%rbp), %rax
	movl	132(%rax), %eax
	testl	%eax, %eax
	je	.L509
	leaq	__PRETTY_FUNCTION__.8509(%rip), %rcx
	movl	$3773, %edx
	leaq	.LC74(%rip), %rsi
	leaq	.LC95(%rip), %rdi
	call	__assert_fail@PLT
.L509:
	movq	-248(%rbp), %rax
	movq	(%rax), %rax
	movq	%rax, -160(%rbp)
	movq	-160(%rbp), %rax
	movq	%rax, %rdi
	call	ecs_vector_count
	movl	%eax, -208(%rbp)
	cmpl	$0, -208(%rbp)
	setg	%al
	movzbl	%al, %eax
	movl	$0, %r9d
	movl	$3778, %r8d
	leaq	.LC74(%rip), %rcx
	leaq	.LC139(%rip), %rdx
	movl	$7, %esi
	movl	%eax, %edi
	movl	$0, %eax
	call	_ecs_assert
	cmpl	$0, -208(%rbp)
	jg	.L510
	leaq	__PRETTY_FUNCTION__.8509(%rip), %rcx
	movl	$3778, %edx
	leaq	.LC74(%rip), %rsi
	leaq	.LC139(%rip), %rdi
	call	__assert_fail@PLT
.L510:
	subl	$1, -208(%rbp)
	movl	-252(%rbp), %eax
	cmpl	-208(%rbp), %eax
	setle	%al
	movzbl	%al, %eax
	movl	$0, %r9d
	movl	$3780, %r8d
	leaq	.LC74(%rip), %rcx
	leaq	.LC140(%rip), %rdx
	movl	$7, %esi
	movl	%eax, %edi
	movl	$0, %eax
	call	_ecs_assert
	movl	-252(%rbp), %eax
	cmpl	-208(%rbp), %eax
	jle	.L511
	leaq	__PRETTY_FUNCTION__.8509(%rip), %rcx
	movl	$3780, %edx
	leaq	.LC74(%rip), %rsi
	leaq	.LC140(%rip), %rdi
	call	__assert_fail@PLT
.L511:
	movq	-160(%rbp), %rax
	movl	$16, %edx
	movl	$8, %esi
	movq	%rax, %rdi
	call	_ecs_vector_first
	movq	%rax, -152(%rbp)
	movl	-208(%rbp), %eax
	cltq
	leaq	0(,%rax,8), %rdx
	movq	-152(%rbp), %rax
	addq	%rdx, %rax
	movq	(%rax), %rax
	movq	%rax, -176(%rbp)
	movl	-252(%rbp), %eax
	cltq
	leaq	0(,%rax,8), %rdx
	movq	-152(%rbp), %rax
	addq	%rdx, %rax
	movq	(%rax), %rax
	movq	%rax, -168(%rbp)
	movl	-252(%rbp), %eax
	cltq
	leaq	0(,%rax,8), %rdx
	movq	-152(%rbp), %rax
	addq	%rax, %rdx
	movq	-176(%rbp), %rax
	movq	%rax, (%rdx)
	movq	-160(%rbp), %rax
	movq	%rax, %rdi
	call	ecs_vector_remove_last
	movq	-248(%rbp), %rax
	movq	8(%rax), %rax
	movq	%rax, -144(%rbp)
	movq	-144(%rbp), %rax
	movq	%rax, %rdi
	call	ecs_vector_count
	cmpl	%eax, -208(%rbp)
	setl	%al
	movzbl	%al, %eax
	movl	$0, %r9d
	movl	$3791, %r8d
	leaq	.LC74(%rip), %rcx
	leaq	.LC141(%rip), %rdx
	movl	$7, %esi
	movl	%eax, %edi
	movl	$0, %eax
	call	_ecs_assert
	movq	-144(%rbp), %rax
	movq	%rax, %rdi
	call	ecs_vector_count
	cmpl	%eax, -208(%rbp)
	jl	.L512
	leaq	__PRETTY_FUNCTION__.8509(%rip), %rcx
	movl	$3791, %edx
	leaq	.LC74(%rip), %rsi
	leaq	.LC141(%rip), %rdi
	call	__assert_fail@PLT
.L512:
	movq	-144(%rbp), %rax
	movl	$16, %edx
	movl	$8, %esi
	movq	%rax, %rdi
	call	_ecs_vector_first
	movq	%rax, -136(%rbp)
	movl	-208(%rbp), %eax
	cltq
	leaq	0(,%rax,8), %rdx
	movq	-136(%rbp), %rax
	addq	%rdx, %rax
	movq	(%rax), %rax
	movq	%rax, -128(%rbp)
	movl	-252(%rbp), %eax
	cltq
	leaq	0(,%rax,8), %rdx
	movq	-136(%rbp), %rax
	addq	%rax, %rdx
	movq	-128(%rbp), %rax
	movq	%rax, (%rdx)
	movq	-144(%rbp), %rax
	movq	%rax, %rdi
	call	ecs_vector_remove_last
	movl	-252(%rbp), %eax
	cmpl	-208(%rbp), %eax
	je	.L513
	cmpq	$0, -128(%rbp)
	je	.L513
	movq	-128(%rbp), %rax
	movl	8(%rax), %eax
	testl	%eax, %eax
	js	.L514
	movl	-252(%rbp), %eax
	leal	1(%rax), %edx
	movq	-128(%rbp), %rax
	movl	%edx, 8(%rax)
	jmp	.L515
.L514:
	movl	-252(%rbp), %eax
	notl	%eax
	movl	%eax, %edx
	movq	-128(%rbp), %rax
	movl	%edx, 8(%rax)
.L515:
	movq	-128(%rbp), %rax
	movq	(%rax), %rax
	testq	%rax, %rax
	setne	%al
	movzbl	%al, %eax
	movl	$0, %r9d
	movl	$3806, %r8d
	leaq	.LC74(%rip), %rcx
	leaq	.LC142(%rip), %rdx
	movl	$7, %esi
	movl	%eax, %edi
	movl	$0, %eax
	call	_ecs_assert
	movq	-128(%rbp), %rax
	movq	(%rax), %rax
	testq	%rax, %rax
	jne	.L516
	leaq	__PRETTY_FUNCTION__.8509(%rip), %rcx
	movl	$3806, %edx
	leaq	.LC74(%rip), %rsi
	leaq	.LC143(%rip), %rdi
	call	__assert_fail@PLT
.L516:
	movq	-128(%rbp), %rax
	movq	(%rax), %rax
	cmpq	%rax, -240(%rbp)
	sete	%al
	movzbl	%al, %eax
	movl	$0, %r9d
	movl	$3807, %r8d
	leaq	.LC74(%rip), %rcx
	leaq	.LC144(%rip), %rdx
	movl	$7, %esi
	movl	%eax, %edi
	movl	$0, %eax
	call	_ecs_assert
	movq	-128(%rbp), %rax
	movq	(%rax), %rax
	cmpq	%rax, -240(%rbp)
	je	.L513
	leaq	__PRETTY_FUNCTION__.8509(%rip), %rcx
	movl	$3807, %edx
	leaq	.LC74(%rip), %rsi
	leaq	.LC144(%rip), %rdi
	call	__assert_fail@PLT
.L513:
	movq	-240(%rbp), %rax
	movl	$0, %esi
	movq	%rax, %rdi
	call	mark_table_dirty
	cmpl	$0, -208(%rbp)
	jne	.L517
	movq	-240(%rbp), %rsi
	movq	-232(%rbp), %rax
	movl	$0, %ecx
	movl	$0, %edx
	movq	%rax, %rdi
	call	table_activate
.L517:
	movq	-240(%rbp), %rax
	movq	32(%rax), %rax
	movq	%rax, -120(%rbp)
	movq	-248(%rbp), %rax
	movq	16(%rax), %rax
	movq	%rax, -112(%rbp)
	movq	-240(%rbp), %rax
	movl	20(%rax), %eax
	movl	%eax, -204(%rbp)
	movq	-240(%rbp), %rax
	movl	16(%rax), %eax
	andl	$196992, %eax
	testl	%eax, %eax
	jne	.L518
	movl	-252(%rbp), %eax
	cmpl	-208(%rbp), %eax
	jne	.L519
	movl	-204(%rbp), %edx
	movq	-112(%rbp), %rax
	movl	%edx, %esi
	movq	%rax, %rdi
	call	fast_delete_last
	jmp	.L505
.L519:
	movl	-252(%rbp), %edx
	movl	-204(%rbp), %ecx
	movq	-112(%rbp), %rax
	movl	%ecx, %esi
	movq	%rax, %rdi
	call	fast_delete
	jmp	.L505
.L518:
	movl	-252(%rbp), %eax
	cmpl	-208(%rbp), %eax
	jne	.L522
	cmpb	$0, -256(%rbp)
	je	.L523
	movq	-240(%rbp), %rax
	movl	16(%rax), %eax
	andl	$256, %eax
	testl	%eax, %eax
	je	.L523
	cmpq	$0, -120(%rbp)
	setne	%al
	movzbl	%al, %eax
	movl	$0, %r9d
	movl	$3841, %r8d
	leaq	.LC74(%rip), %rcx
	leaq	.LC145(%rip), %rdx
	movl	$7, %esi
	movl	%eax, %edi
	movl	$0, %eax
	call	_ecs_assert
	cmpq	$0, -120(%rbp)
	jne	.L524
	leaq	__PRETTY_FUNCTION__.8509(%rip), %rcx
	movl	$3841, %edx
	leaq	.LC74(%rip), %rsi
	leaq	.LC146(%rip), %rdi
	call	__assert_fail@PLT
.L524:
	movl	$0, -212(%rbp)
	jmp	.L525
.L529:
	movl	-212(%rbp), %eax
	cltq
	leaq	0(,%rax,8), %rdx
	movq	-120(%rbp), %rax
	addq	%rdx, %rax
	movq	(%rax), %rax
	movq	%rax, -56(%rbp)
	cmpq	$0, -56(%rbp)
	je	.L526
	movq	-56(%rbp), %rax
	movq	8(%rax), %rax
	movq	%rax, -48(%rbp)
	cmpq	$0, -48(%rbp)
	je	.L526
	movq	-56(%rbp), %rax
	movl	88(%rax), %eax
	movl	%eax, -192(%rbp)
	movq	-56(%rbp), %rax
	movl	92(%rax), %eax
	movl	%eax, -188(%rbp)
	movq	-56(%rbp), %rax
	movq	32(%rax), %rbx
	movl	-192(%rbp), %eax
	cltq
	movq	%rax, %rdi
	call	flecs_to_size_t
	movq	%rax, %r12
	cmpl	$15, -188(%rbp)
	jle	.L527
	movl	-188(%rbp), %eax
	cwtl
	jmp	.L528
.L527:
	movl	$16, %eax
.L528:
	movl	-212(%rbp), %edx
	movslq	%edx, %rdx
	movq	%rdx, %rcx
	salq	$4, %rcx
	movq	-112(%rbp), %rdx
	addq	%rcx, %rdx
	movq	(%rdx), %rcx
	movl	-192(%rbp), %esi
	movl	%eax, %edx
	movq	%rcx, %rdi
	call	_ecs_vector_last
	movq	%rax, %rcx
	movq	-56(%rbp), %rax
	movq	80(%rax), %rsi
	leaq	-168(%rbp), %rdx
	movq	-232(%rbp), %rax
	subq	$8, %rsp
	pushq	%rbx
	movq	-48(%rbp), %r10
	movl	$1, %r9d
	movq	%r12, %r8
	movq	%rax, %rdi
	call	*%r10
	addq	$16, %rsp
.L526:
	addl	$1, -212(%rbp)
.L525:
	movl	-212(%rbp), %eax
	cmpl	-204(%rbp), %eax
	jl	.L529
.L523:
	movl	-204(%rbp), %edx
	movq	-112(%rbp), %rax
	movl	%edx, %esi
	movq	%rax, %rdi
	call	fast_delete_last
	jmp	.L530
.L522:
	cmpb	$0, -256(%rbp)
	je	.L531
	movq	-240(%rbp), %rax
	movl	16(%rax), %eax
	andl	$1280, %eax
	testl	%eax, %eax
	je	.L531
	cmpq	$0, -120(%rbp)
	setne	%al
	movzbl	%al, %eax
	movl	$0, %r9d
	movl	$3862, %r8d
	leaq	.LC74(%rip), %rcx
	leaq	.LC145(%rip), %rdx
	movl	$7, %esi
	movl	%eax, %edi
	movl	$0, %eax
	call	_ecs_assert
	cmpq	$0, -120(%rbp)
	jne	.L532
	leaq	__PRETTY_FUNCTION__.8509(%rip), %rcx
	movl	$3862, %edx
	leaq	.LC74(%rip), %rsi
	leaq	.LC146(%rip), %rdi
	call	__assert_fail@PLT
.L532:
	movl	$0, -212(%rbp)
	jmp	.L533
.L540:
	movl	-212(%rbp), %eax
	cltq
	salq	$4, %rax
	movq	%rax, %rdx
	movq	-112(%rbp), %rax
	addq	%rdx, %rax
	movq	%rax, -104(%rbp)
	movq	-104(%rbp), %rax
	movzwl	8(%rax), %eax
	cwtl
	movl	%eax, -200(%rbp)
	movq	-104(%rbp), %rax
	movzwl	10(%rax), %eax
	cwtl
	movl	%eax, -196(%rbp)
	movq	-104(%rbp), %rax
	movq	(%rax), %rax
	movq	%rax, -96(%rbp)
	cmpl	$15, -196(%rbp)
	jle	.L534
	movl	-196(%rbp), %eax
	cwtl
	jmp	.L535
.L534:
	movl	$16, %eax
.L535:
	movl	-252(%rbp), %edx
	movl	-200(%rbp), %esi
	movq	-96(%rbp), %rdi
	movl	%edx, %ecx
	movl	%eax, %edx
	call	_ecs_vector_get
	movq	%rax, -88(%rbp)
	cmpl	$15, -196(%rbp)
	jle	.L536
	movl	-196(%rbp), %eax
	cwtl
	jmp	.L537
.L536:
	movl	$16, %eax
.L537:
	movl	-200(%rbp), %esi
	movq	-96(%rbp), %rcx
	movl	%eax, %edx
	movq	%rcx, %rdi
	call	_ecs_vector_last
	movq	%rax, -80(%rbp)
	movl	-212(%rbp), %eax
	cltq
	leaq	0(,%rax,8), %rdx
	movq	-120(%rbp), %rax
	addq	%rdx, %rax
	movq	(%rax), %rax
	movq	%rax, -72(%rbp)
	cmpq	$0, -72(%rbp)
	je	.L538
	movq	-72(%rbp), %rax
	movq	64(%rax), %rax
	movq	%rax, -64(%rbp)
	cmpq	$0, -64(%rbp)
	je	.L538
	movq	-72(%rbp), %rax
	movq	32(%rax), %rbx
	movl	-200(%rbp), %eax
	cltq
	movq	%rax, %rdi
	call	flecs_to_size_t
	movq	%rax, %rdi
	movq	-72(%rbp), %rdx
	movq	-72(%rbp), %rax
	movq	80(%rax), %rsi
	movq	-88(%rbp), %r9
	leaq	-168(%rbp), %r8
	leaq	-176(%rbp), %rcx
	movq	-232(%rbp), %rax
	pushq	%rbx
	pushq	$1
	pushq	%rdi
	pushq	-80(%rbp)
	movq	-64(%rbp), %r10
	movq	%rax, %rdi
	call	*%r10
	addq	$32, %rsp
	jmp	.L539
.L538:
	movl	-200(%rbp), %eax
	movslq	%eax, %rdx
	movq	-80(%rbp), %rcx
	movq	-88(%rbp), %rax
	movq	%rcx, %rsi
	movq	%rax, %rdi
	call	memcpy@PLT
.L539:
	movq	-96(%rbp), %rax
	movq	%rax, %rdi
	call	ecs_vector_remove_last
	addl	$1, -212(%rbp)
.L533:
	movl	-212(%rbp), %eax
	cmpl	-204(%rbp), %eax
	jl	.L540
	jmp	.L530
.L531:
	movl	-252(%rbp), %edx
	movl	-204(%rbp), %ecx
	movq	-112(%rbp), %rax
	movl	%ecx, %esi
	movq	%rax, %rdi
	call	fast_delete
.L530:
	movq	-248(%rbp), %rax
	movq	24(%rax), %rax
	movq	%rax, -40(%rbp)
	movq	-240(%rbp), %rax
	movl	116(%rax), %eax
	movl	%eax, -184(%rbp)
	movl	$0, -212(%rbp)
	jmp	.L541
.L542:
	movl	-212(%rbp), %eax
	cltq
	salq	$4, %rax
	movq	%rax, %rdx
	movq	-40(%rbp), %rax
	addq	%rdx, %rax
	movq	(%rax), %rax
	movl	-252(%rbp), %edx
	movl	%edx, %esi
	movq	%rax, %rdi
	call	flecs_switch_remove
	addl	$1, -212(%rbp)
.L541:
	movl	-212(%rbp), %eax
	cmpl	-184(%rbp), %eax
	jl	.L542
	movq	-248(%rbp), %rax
	movq	32(%rax), %rax
	movq	%rax, -32(%rbp)
	movq	-240(%rbp), %rax
	movl	124(%rax), %eax
	movl	%eax, -180(%rbp)
	movl	$0, -212(%rbp)
	jmp	.L543
.L544:
	movl	-212(%rbp), %eax
	cltq
	salq	$4, %rax
	movq	%rax, %rdx
	movq	-32(%rbp), %rax
	addq	%rdx, %rax
	movq	%rax, %rdx
	movl	-252(%rbp), %eax
	movl	%eax, %esi
	movq	%rdx, %rdi
	call	flecs_bitset_remove
	addl	$1, -212(%rbp)
.L543:
	movl	-212(%rbp), %eax
	cmpl	-180(%rbp), %eax
	jl	.L544
.L505:
	movq	-24(%rbp), %rax
	xorq	%fs:40, %rax
	je	.L545
	call	__stack_chk_fail@PLT
.L545:
	leaq	-16(%rbp), %rsp
	popq	%rbx
	popq	%r12
	popq	%rbp
	.cfi_def_cfa 7, 8
	ret
	.cfi_endproc
.LFE62:
	.size	flecs_table_delete, .-flecs_table_delete
	.section	.rodata
.LC147:
	.string	"dst != NULL"
.LC148:
	.string	"dst != ((void *)0)"
.LC149:
	.string	"src != NULL"
.LC150:
	.string	"src != ((void *)0)"
	.text
	.type	fast_move, @function
fast_move:
.LFB63:
	.cfi_startproc
	endbr64
	pushq	%rbp
	.cfi_def_cfa_offset 16
	.cfi_offset 6, -16
	movq	%rsp, %rbp
	.cfi_def_cfa_register 6
	subq	$176, %rsp
	movq	%rdi, -136(%rbp)
	movq	%rsi, -144(%rbp)
	movl	%edx, -148(%rbp)
	movq	%rcx, -160(%rbp)
	movq	%r8, -168(%rbp)
	movl	%r9d, -152(%rbp)
	movq	-136(%rbp), %rax
	movq	8(%rax), %rax
	movq	%rax, -96(%rbp)
	movq	-160(%rbp), %rax
	movq	8(%rax), %rax
	movq	%rax, -88(%rbp)
	movl	$0, -112(%rbp)
	movq	-136(%rbp), %rax
	movl	20(%rax), %eax
	movl	%eax, -104(%rbp)
	movl	$0, -108(%rbp)
	movq	-160(%rbp), %rax
	movl	20(%rax), %eax
	movl	%eax, -100(%rbp)
	movq	-96(%rbp), %rax
	movl	$16, %edx
	movl	$8, %esi
	movq	%rax, %rdi
	call	_ecs_vector_first
	movq	%rax, -80(%rbp)
	movq	-88(%rbp), %rax
	movl	$16, %edx
	movl	$8, %esi
	movq	%rax, %rdi
	call	_ecs_vector_first
	movq	%rax, -72(%rbp)
	movq	-168(%rbp), %rax
	movq	16(%rax), %rax
	movq	%rax, -64(%rbp)
	movq	-144(%rbp), %rax
	movq	16(%rax), %rax
	movq	%rax, -56(%rbp)
	jmp	.L547
.L552:
	movl	-112(%rbp), %eax
	cltq
	leaq	0(,%rax,8), %rdx
	movq	-80(%rbp), %rax
	addq	%rdx, %rax
	movq	(%rax), %rax
	movq	%rax, -48(%rbp)
	movl	-108(%rbp), %eax
	cltq
	leaq	0(,%rax,8), %rdx
	movq	-72(%rbp), %rax
	addq	%rdx, %rax
	movq	(%rax), %rax
	movq	%rax, -40(%rbp)
	movq	-48(%rbp), %rax
	cmpq	-40(%rbp), %rax
	jne	.L548
	movl	-112(%rbp), %eax
	cltq
	salq	$4, %rax
	movq	%rax, %rdx
	movq	-56(%rbp), %rax
	addq	%rdx, %rax
	movq	%rax, -32(%rbp)
	movl	-108(%rbp), %eax
	cltq
	salq	$4, %rax
	movq	%rax, %rdx
	movq	-64(%rbp), %rax
	addq	%rdx, %rax
	movq	%rax, -24(%rbp)
	movq	-32(%rbp), %rax
	movzwl	8(%rax), %eax
	movw	%ax, -116(%rbp)
	cmpw	$0, -116(%rbp)
	je	.L548
	movq	-32(%rbp), %rax
	movzwl	10(%rax), %eax
	movw	%ax, -114(%rbp)
	movl	$16, %eax
	cmpw	$16, -114(%rbp)
	cmovge	-114(%rbp), %ax
	movswl	%ax, %edx
	movswl	-116(%rbp), %esi
	movq	-32(%rbp), %rax
	movq	(%rax), %rax
	movl	-148(%rbp), %ecx
	movq	%rax, %rdi
	call	_ecs_vector_get
	movq	%rax, -16(%rbp)
	movl	$16, %eax
	cmpw	$16, -114(%rbp)
	cmovge	-114(%rbp), %ax
	movswl	%ax, %edx
	movswl	-116(%rbp), %esi
	movq	-24(%rbp), %rax
	movq	(%rax), %rax
	movl	-152(%rbp), %ecx
	movq	%rax, %rdi
	call	_ecs_vector_get
	movq	%rax, -8(%rbp)
	cmpq	$0, -16(%rbp)
	setne	%al
	movzbl	%al, %eax
	movl	$0, %r9d
	movl	$3941, %r8d
	leaq	.LC74(%rip), %rcx
	leaq	.LC147(%rip), %rdx
	movl	$7, %esi
	movl	%eax, %edi
	movl	$0, %eax
	call	_ecs_assert
	cmpq	$0, -16(%rbp)
	jne	.L549
	leaq	__PRETTY_FUNCTION__.8576(%rip), %rcx
	movl	$3941, %edx
	leaq	.LC74(%rip), %rsi
	leaq	.LC148(%rip), %rdi
	call	__assert_fail@PLT
.L549:
	cmpq	$0, -8(%rbp)
	setne	%al
	movzbl	%al, %eax
	movl	$0, %r9d
	movl	$3942, %r8d
	leaq	.LC74(%rip), %rcx
	leaq	.LC149(%rip), %rdx
	movl	$7, %esi
	movl	%eax, %edi
	movl	$0, %eax
	call	_ecs_assert
	cmpq	$0, -8(%rbp)
	jne	.L550
	leaq	__PRETTY_FUNCTION__.8576(%rip), %rcx
	movl	$3942, %edx
	leaq	.LC74(%rip), %rsi
	leaq	.LC150(%rip), %rdi
	call	__assert_fail@PLT
.L550:
	movswq	-116(%rbp), %rdx
	movq	-8(%rbp), %rcx
	movq	-16(%rbp), %rax
	movq	%rcx, %rsi
	movq	%rax, %rdi
	call	memcpy@PLT
.L548:
	movq	-48(%rbp), %rax
	cmpq	-40(%rbp), %rax
	setbe	%al
	movzbl	%al, %eax
	addl	%eax, -112(%rbp)
	movq	-48(%rbp), %rax
	cmpq	-40(%rbp), %rax
	setnb	%al
	movzbl	%al, %eax
	addl	%eax, -108(%rbp)
.L547:
	movl	-112(%rbp), %eax
	cmpl	-104(%rbp), %eax
	jge	.L553
	movl	-108(%rbp), %eax
	cmpl	-100(%rbp), %eax
	jl	.L552
.L553:
	nop
	leave
	.cfi_def_cfa 7, 8
	ret
	.cfi_endproc
.LFE63:
	.size	fast_move, .-fast_move
	.section	.rodata
.LC151:
	.string	"new_table != NULL"
.LC152:
	.string	"new_table != ((void *)0)"
.LC153:
	.string	"old_table != NULL"
.LC154:
	.string	"old_table != ((void *)0)"
.LC155:
	.string	"!new_table->lock"
.LC156:
	.string	"!old_table->lock"
.LC157:
	.string	"old_index >= 0"
.LC158:
	.string	"new_index >= 0"
.LC159:
	.string	"old_data != NULL"
.LC160:
	.string	"old_data != ((void *)0)"
.LC161:
	.string	"new_data != NULL"
.LC162:
	.string	"new_data != ((void *)0)"
	.text
	.globl	flecs_table_move
	.type	flecs_table_move, @function
flecs_table_move:
.LFB64:
	.cfi_startproc
	endbr64
	pushq	%rbp
	.cfi_def_cfa_offset 16
	.cfi_offset 6, -16
	movq	%rsp, %rbp
	.cfi_def_cfa_register 6
	subq	$208, %rsp
	movq	%rdi, -168(%rbp)
	movq	%rsi, -176(%rbp)
	movq	%rdx, -184(%rbp)
	movq	%rcx, -192(%rbp)
	movq	%r8, -200(%rbp)
	movl	%r9d, -204(%rbp)
	movl	40(%rbp), %eax
	movb	%al, -208(%rbp)
	cmpq	$0, -192(%rbp)
	setne	%al
	movzbl	%al, %eax
	movl	$0, %r9d
	movl	$3964, %r8d
	leaq	.LC74(%rip), %rcx
	leaq	.LC151(%rip), %rdx
	movl	$7, %esi
	movl	%eax, %edi
	movl	$0, %eax
	call	_ecs_assert
	cmpq	$0, -192(%rbp)
	jne	.L555
	leaq	__PRETTY_FUNCTION__.8592(%rip), %rcx
	movl	$3964, %edx
	leaq	.LC74(%rip), %rsi
	leaq	.LC152(%rip), %rdi
	call	__assert_fail@PLT
.L555:
	cmpq	$0, 16(%rbp)
	setne	%al
	movzbl	%al, %eax
	movl	$0, %r9d
	movl	$3965, %r8d
	leaq	.LC74(%rip), %rcx
	leaq	.LC153(%rip), %rdx
	movl	$7, %esi
	movl	%eax, %edi
	movl	$0, %eax
	call	_ecs_assert
	cmpq	$0, 16(%rbp)
	jne	.L556
	leaq	__PRETTY_FUNCTION__.8592(%rip), %rcx
	movl	$3965, %edx
	leaq	.LC74(%rip), %rsi
	leaq	.LC154(%rip), %rdi
	call	__assert_fail@PLT
.L556:
	movq	-192(%rbp), %rax
	movl	132(%rax), %eax
	testl	%eax, %eax
	sete	%al
	movzbl	%al, %eax
	movl	$0, %r9d
	movl	$3966, %r8d
	leaq	.LC74(%rip), %rcx
	leaq	.LC155(%rip), %rdx
	movl	$71, %esi
	movl	%eax, %edi
	movl	$0, %eax
	call	_ecs_assert
	movq	-192(%rbp), %rax
	movl	132(%rax), %eax
	testl	%eax, %eax
	je	.L557
	leaq	__PRETTY_FUNCTION__.8592(%rip), %rcx
	movl	$3966, %edx
	leaq	.LC74(%rip), %rsi
	leaq	.LC155(%rip), %rdi
	call	__assert_fail@PLT
.L557:
	movq	16(%rbp), %rax
	movl	132(%rax), %eax
	testl	%eax, %eax
	sete	%al
	movzbl	%al, %eax
	movl	$0, %r9d
	movl	$3967, %r8d
	leaq	.LC74(%rip), %rcx
	leaq	.LC156(%rip), %rdx
	movl	$71, %esi
	movl	%eax, %edi
	movl	$0, %eax
	call	_ecs_assert
	movq	16(%rbp), %rax
	movl	132(%rax), %eax
	testl	%eax, %eax
	je	.L558
	leaq	__PRETTY_FUNCTION__.8592(%rip), %rcx
	movl	$3967, %edx
	leaq	.LC74(%rip), %rsi
	leaq	.LC156(%rip), %rdi
	call	__assert_fail@PLT
.L558:
	movl	32(%rbp), %eax
	notl	%eax
	shrl	$31, %eax
	movzbl	%al, %eax
	movl	$0, %r9d
	movl	$3969, %r8d
	leaq	.LC74(%rip), %rcx
	leaq	.LC157(%rip), %rdx
	movl	$7, %esi
	movl	%eax, %edi
	movl	$0, %eax
	call	_ecs_assert
	cmpl	$0, 32(%rbp)
	jns	.L559
	leaq	__PRETTY_FUNCTION__.8592(%rip), %rcx
	movl	$3969, %edx
	leaq	.LC74(%rip), %rsi
	leaq	.LC157(%rip), %rdi
	call	__assert_fail@PLT
.L559:
	movl	-204(%rbp), %eax
	notl	%eax
	shrl	$31, %eax
	movzbl	%al, %eax
	movl	$0, %r9d
	movl	$3970, %r8d
	leaq	.LC74(%rip), %rcx
	leaq	.LC158(%rip), %rdx
	movl	$7, %esi
	movl	%eax, %edi
	movl	$0, %eax
	call	_ecs_assert
	cmpl	$0, -204(%rbp)
	jns	.L560
	leaq	__PRETTY_FUNCTION__.8592(%rip), %rcx
	movl	$3970, %edx
	leaq	.LC74(%rip), %rsi
	leaq	.LC158(%rip), %rdi
	call	__assert_fail@PLT
.L560:
	cmpq	$0, 24(%rbp)
	setne	%al
	movzbl	%al, %eax
	movl	$0, %r9d
	movl	$3972, %r8d
	leaq	.LC74(%rip), %rcx
	leaq	.LC159(%rip), %rdx
	movl	$7, %esi
	movl	%eax, %edi
	movl	$0, %eax
	call	_ecs_assert
	cmpq	$0, 24(%rbp)
	jne	.L561
	leaq	__PRETTY_FUNCTION__.8592(%rip), %rcx
	movl	$3972, %edx
	leaq	.LC74(%rip), %rsi
	leaq	.LC160(%rip), %rdi
	call	__assert_fail@PLT
.L561:
	cmpq	$0, -200(%rbp)
	setne	%al
	movzbl	%al, %eax
	movl	$0, %r9d
	movl	$3973, %r8d
	leaq	.LC74(%rip), %rcx
	leaq	.LC161(%rip), %rdx
	movl	$7, %esi
	movl	%eax, %edi
	movl	$0, %eax
	call	_ecs_assert
	cmpq	$0, -200(%rbp)
	jne	.L562
	leaq	__PRETTY_FUNCTION__.8592(%rip), %rcx
	movl	$3973, %edx
	leaq	.LC74(%rip), %rsi
	leaq	.LC162(%rip), %rdi
	call	__assert_fail@PLT
.L562:
	movq	-192(%rbp), %rax
	movl	16(%rax), %edx
	movq	16(%rbp), %rax
	movl	16(%rax), %eax
	orl	%edx, %eax
	andl	$196992, %eax
	testl	%eax, %eax
	jne	.L563
	movl	32(%rbp), %edi
	movq	24(%rbp), %rcx
	movl	-204(%rbp), %edx
	movq	-200(%rbp), %rsi
	movq	-192(%rbp), %rax
	movl	%edi, %r9d
	movq	%rcx, %r8
	movq	16(%rbp), %rcx
	movq	%rax, %rdi
	call	fast_move
	jmp	.L554
.L563:
	movl	32(%rbp), %edi
	movq	24(%rbp), %rcx
	movl	-204(%rbp), %edx
	movq	-200(%rbp), %rsi
	movq	-192(%rbp), %rax
	subq	$8, %rsp
	pushq	$1
	movl	%edi, %r9d
	movq	%rcx, %r8
	movq	16(%rbp), %rcx
	movq	%rax, %rdi
	call	move_switch_columns
	addq	$16, %rsp
	movl	32(%rbp), %edi
	movq	24(%rbp), %rcx
	movl	-204(%rbp), %edx
	movq	-200(%rbp), %rsi
	movq	-192(%rbp), %rax
	subq	$8, %rsp
	pushq	$1
	movl	%edi, %r9d
	movq	%rcx, %r8
	movq	16(%rbp), %rcx
	movq	%rax, %rdi
	call	move_bitset_columns
	addq	$16, %rsp
	movq	-176(%rbp), %rdx
	movq	-184(%rbp), %rax
	cmpq	%rax, %rdx
	sete	%al
	movb	%al, -157(%rbp)
	movq	-192(%rbp), %rax
	movq	8(%rax), %rax
	movq	%rax, -136(%rbp)
	movq	16(%rbp), %rax
	movq	8(%rax), %rax
	movq	%rax, -128(%rbp)
	movl	$0, -152(%rbp)
	movq	-192(%rbp), %rax
	movl	20(%rax), %eax
	movl	%eax, -144(%rbp)
	movl	$0, -148(%rbp)
	movq	16(%rbp), %rax
	movl	20(%rax), %eax
	movl	%eax, -140(%rbp)
	movq	-136(%rbp), %rax
	movl	$16, %edx
	movl	$8, %esi
	movq	%rax, %rdi
	call	_ecs_vector_first
	movq	%rax, -120(%rbp)
	movq	-128(%rbp), %rax
	movl	$16, %edx
	movl	$8, %esi
	movq	%rax, %rdi
	call	_ecs_vector_first
	movq	%rax, -112(%rbp)
	movq	24(%rbp), %rax
	movq	16(%rax), %rax
	movq	%rax, -104(%rbp)
	movq	-200(%rbp), %rax
	movq	16(%rax), %rax
	movq	%rax, -96(%rbp)
	jmp	.L565
.L577:
	movl	-152(%rbp), %eax
	cltq
	leaq	0(,%rax,8), %rdx
	movq	-120(%rbp), %rax
	addq	%rdx, %rax
	movq	(%rax), %rax
	movq	%rax, -88(%rbp)
	movl	-148(%rbp), %eax
	cltq
	leaq	0(,%rax,8), %rdx
	movq	-112(%rbp), %rax
	addq	%rdx, %rax
	movq	(%rax), %rax
	movq	%rax, -80(%rbp)
	movq	-88(%rbp), %rax
	cmpq	-80(%rbp), %rax
	jne	.L566
	movl	-152(%rbp), %eax
	cltq
	salq	$4, %rax
	movq	%rax, %rdx
	movq	-96(%rbp), %rax
	addq	%rdx, %rax
	movq	%rax, -72(%rbp)
	movl	-148(%rbp), %eax
	cltq
	salq	$4, %rax
	movq	%rax, %rdx
	movq	-104(%rbp), %rax
	addq	%rdx, %rax
	movq	%rax, -64(%rbp)
	movq	-72(%rbp), %rax
	movzwl	8(%rax), %eax
	movw	%ax, -156(%rbp)
	movq	-72(%rbp), %rax
	movzwl	10(%rax), %eax
	movw	%ax, -154(%rbp)
	cmpw	$0, -156(%rbp)
	je	.L574
	movl	$16, %eax
	cmpw	$16, -154(%rbp)
	cmovge	-154(%rbp), %ax
	movswl	%ax, %edx
	movswl	-156(%rbp), %esi
	movq	-72(%rbp), %rax
	movq	(%rax), %rax
	movl	-204(%rbp), %ecx
	movq	%rax, %rdi
	call	_ecs_vector_get
	movq	%rax, -56(%rbp)
	movl	$16, %eax
	cmpw	$16, -154(%rbp)
	cmovge	-154(%rbp), %ax
	movswl	%ax, %edx
	movswl	-156(%rbp), %esi
	movq	-64(%rbp), %rax
	movq	(%rax), %rax
	movl	32(%rbp), %ecx
	movq	%rax, %rdi
	call	_ecs_vector_get
	movq	%rax, -48(%rbp)
	cmpq	$0, -56(%rbp)
	setne	%al
	movzbl	%al, %eax
	movl	$0, %r9d
	movl	$4015, %r8d
	leaq	.LC74(%rip), %rcx
	leaq	.LC147(%rip), %rdx
	movl	$7, %esi
	movl	%eax, %edi
	movl	$0, %eax
	call	_ecs_assert
	cmpq	$0, -56(%rbp)
	jne	.L568
	leaq	__PRETTY_FUNCTION__.8592(%rip), %rcx
	movl	$4015, %edx
	leaq	.LC74(%rip), %rsi
	leaq	.LC148(%rip), %rdi
	call	__assert_fail@PLT
.L568:
	cmpq	$0, -48(%rbp)
	setne	%al
	movzbl	%al, %eax
	movl	$0, %r9d
	movl	$4016, %r8d
	leaq	.LC74(%rip), %rcx
	leaq	.LC149(%rip), %rdx
	movl	$7, %esi
	movl	%eax, %edi
	movl	$0, %eax
	call	_ecs_assert
	cmpq	$0, -48(%rbp)
	jne	.L569
	leaq	__PRETTY_FUNCTION__.8592(%rip), %rcx
	movl	$4016, %edx
	leaq	.LC74(%rip), %rsi
	leaq	.LC150(%rip), %rdi
	call	__assert_fail@PLT
.L569:
	movq	-192(%rbp), %rax
	movq	32(%rax), %rax
	movl	-152(%rbp), %edx
	movslq	%edx, %rdx
	salq	$3, %rdx
	addq	%rdx, %rax
	movq	(%rax), %rax
	movq	%rax, -40(%rbp)
	cmpb	$0, -157(%rbp)
	je	.L570
	cmpq	$0, -40(%rbp)
	je	.L571
	movq	-40(%rbp), %rax
	movq	56(%rax), %rax
	movq	%rax, -16(%rbp)
	cmpq	$0, -16(%rbp)
	je	.L571
	movq	-40(%rbp), %rax
	movq	32(%rax), %rax
	movq	%rax, -8(%rbp)
	movswq	-156(%rbp), %rax
	movq	%rax, %rdi
	call	flecs_to_size_t
	movq	%rax, %rdi
	movq	-40(%rbp), %rdx
	movq	-56(%rbp), %r9
	leaq	-184(%rbp), %r8
	leaq	-176(%rbp), %rcx
	movq	-88(%rbp), %rsi
	movq	-168(%rbp), %rax
	pushq	-8(%rbp)
	pushq	$1
	pushq	%rdi
	pushq	-48(%rbp)
	movq	-16(%rbp), %r10
	movq	%rax, %rdi
	call	*%r10
	addq	$32, %rsp
	jmp	.L574
.L571:
	movswq	-156(%rbp), %rdx
	movq	-48(%rbp), %rcx
	movq	-56(%rbp), %rax
	movq	%rcx, %rsi
	movq	%rax, %rdi
	call	memcpy@PLT
	jmp	.L574
.L570:
	cmpq	$0, -40(%rbp)
	je	.L573
	movq	-40(%rbp), %rax
	movq	40(%rax), %rax
	movq	%rax, -32(%rbp)
	cmpq	$0, -32(%rbp)
	je	.L573
	movq	-40(%rbp), %rax
	movq	32(%rax), %rax
	movq	%rax, -24(%rbp)
	movswq	-156(%rbp), %rax
	movq	%rax, %rdi
	call	flecs_to_size_t
	movq	%rax, %rdi
	movq	-40(%rbp), %rdx
	movq	-56(%rbp), %r9
	leaq	-184(%rbp), %r8
	leaq	-176(%rbp), %rcx
	movq	-88(%rbp), %rsi
	movq	-168(%rbp), %rax
	pushq	-24(%rbp)
	pushq	$1
	pushq	%rdi
	pushq	-48(%rbp)
	movq	-32(%rbp), %r10
	movq	%rax, %rdi
	call	*%r10
	addq	$32, %rsp
	jmp	.L574
.L573:
	movswq	-156(%rbp), %rdx
	movq	-48(%rbp), %rcx
	movq	-56(%rbp), %rax
	movq	%rcx, %rsi
	movq	%rax, %rdi
	call	memcpy@PLT
	jmp	.L574
.L566:
	movq	-88(%rbp), %rax
	cmpq	-80(%rbp), %rax
	jnb	.L575
	cmpb	$0, -208(%rbp)
	je	.L574
	movl	-152(%rbp), %eax
	cltq
	salq	$4, %rax
	movq	%rax, %rdx
	movq	-96(%rbp), %rax
	leaq	(%rdx,%rax), %rdi
	movq	-192(%rbp), %rax
	movq	32(%rax), %rax
	movl	-152(%rbp), %edx
	movslq	%edx, %rdx
	salq	$3, %rdx
	addq	%rdx, %rax
	movq	(%rax), %rsi
	movl	-204(%rbp), %ecx
	leaq	-176(%rbp), %rdx
	movq	-168(%rbp), %rax
	movl	$1, %r9d
	movl	%ecx, %r8d
	movq	%rdx, %rcx
	movq	%rdi, %rdx
	movq	%rax, %rdi
	call	ctor_component
	jmp	.L574
.L575:
	movl	-148(%rbp), %eax
	cltq
	salq	$4, %rax
	movq	%rax, %rdx
	movq	-104(%rbp), %rax
	leaq	(%rdx,%rax), %rdi
	movq	16(%rbp), %rax
	movq	32(%rax), %rax
	movl	-148(%rbp), %edx
	movslq	%edx, %rdx
	salq	$3, %rdx
	addq	%rdx, %rax
	movq	(%rax), %rsi
	movl	32(%rbp), %ecx
	leaq	-184(%rbp), %rdx
	movq	-168(%rbp), %rax
	movl	$1, %r9d
	movl	%ecx, %r8d
	movq	%rdx, %rcx
	movq	%rdi, %rdx
	movq	%rax, %rdi
	call	dtor_component
.L574:
	movq	-88(%rbp), %rax
	cmpq	-80(%rbp), %rax
	setbe	%al
	movzbl	%al, %eax
	addl	%eax, -152(%rbp)
	movq	-88(%rbp), %rax
	cmpq	-80(%rbp), %rax
	setnb	%al
	movzbl	%al, %eax
	addl	%eax, -148(%rbp)
.L565:
	movl	-152(%rbp), %eax
	cmpl	-144(%rbp), %eax
	jge	.L576
	movl	-148(%rbp), %eax
	cmpl	-140(%rbp), %eax
	jl	.L577
.L576:
	cmpb	$0, -208(%rbp)
	je	.L581
	jmp	.L579
.L580:
	movl	-152(%rbp), %eax
	cltq
	salq	$4, %rax
	movq	%rax, %rdx
	movq	-96(%rbp), %rax
	leaq	(%rdx,%rax), %rdi
	movq	-192(%rbp), %rax
	movq	32(%rax), %rax
	movl	-152(%rbp), %edx
	movslq	%edx, %rdx
	salq	$3, %rdx
	addq	%rdx, %rax
	movq	(%rax), %rsi
	movl	-204(%rbp), %ecx
	leaq	-176(%rbp), %rdx
	movq	-168(%rbp), %rax
	movl	$1, %r9d
	movl	%ecx, %r8d
	movq	%rdx, %rcx
	movq	%rdi, %rdx
	movq	%rax, %rdi
	call	ctor_component
	addl	$1, -152(%rbp)
.L579:
	movl	-152(%rbp), %eax
	cmpl	-144(%rbp), %eax
	jl	.L580
	jmp	.L581
.L582:
	movl	-148(%rbp), %eax
	cltq
	salq	$4, %rax
	movq	%rax, %rdx
	movq	-104(%rbp), %rax
	leaq	(%rdx,%rax), %rdi
	movq	16(%rbp), %rax
	movq	32(%rax), %rax
	movl	-148(%rbp), %edx
	movslq	%edx, %rdx
	salq	$3, %rdx
	addq	%rdx, %rax
	movq	(%rax), %rsi
	movl	32(%rbp), %ecx
	leaq	-184(%rbp), %rdx
	movq	-168(%rbp), %rax
	movl	$1, %r9d
	movl	%ecx, %r8d
	movq	%rdx, %rcx
	movq	%rdi, %rdx
	movq	%rax, %rdi
	call	dtor_component
	addl	$1, -148(%rbp)
.L581:
	movl	-148(%rbp), %eax
	cmpl	-140(%rbp), %eax
	jl	.L582
.L554:
	leave
	.cfi_def_cfa 7, 8
	ret
	.cfi_endproc
.LFE64:
	.size	flecs_table_move, .-flecs_table_move
	.globl	flecs_table_appendn
	.type	flecs_table_appendn, @function
flecs_table_appendn:
.LFB65:
	.cfi_startproc
	endbr64
	pushq	%rbp
	.cfi_def_cfa_offset 16
	.cfi_offset 6, -16
	movq	%rsp, %rbp
	.cfi_def_cfa_register 6
	subq	$64, %rsp
	movq	%rdi, -24(%rbp)
	movq	%rsi, -32(%rbp)
	movq	%rdx, -40(%rbp)
	movl	%ecx, -44(%rbp)
	movq	%r8, -56(%rbp)
	movq	-32(%rbp), %rax
	movl	132(%rax), %eax
	testl	%eax, %eax
	sete	%al
	movzbl	%al, %eax
	movl	$0, %r9d
	movl	$4078, %r8d
	leaq	.LC74(%rip), %rcx
	leaq	.LC95(%rip), %rdx
	movl	$71, %esi
	movl	%eax, %edi
	movl	$0, %eax
	call	_ecs_assert
	movq	-32(%rbp), %rax
	movl	132(%rax), %eax
	testl	%eax, %eax
	je	.L584
	leaq	__PRETTY_FUNCTION__.8633(%rip), %rcx
	movl	$4078, %edx
	leaq	.LC74(%rip), %rsi
	leaq	.LC95(%rip), %rdi
	call	__assert_fail@PLT
.L584:
	movq	-40(%rbp), %rax
	movq	%rax, %rdi
	call	flecs_table_data_count
	movl	%eax, -4(%rbp)
	movl	-4(%rbp), %edx
	movl	-44(%rbp), %eax
	leal	(%rdx,%rax), %r8d
	movq	-56(%rbp), %rdi
	movl	-44(%rbp), %ecx
	movq	-40(%rbp), %rdx
	movq	-32(%rbp), %rsi
	movq	-24(%rbp), %rax
	movq	%rdi, %r9
	movq	%rax, %rdi
	call	grow_data
	leave
	.cfi_def_cfa 7, 8
	ret
	.cfi_endproc
.LFE65:
	.size	flecs_table_appendn, .-flecs_table_appendn
	.globl	flecs_table_set_size
	.type	flecs_table_set_size, @function
flecs_table_set_size:
.LFB66:
	.cfi_startproc
	endbr64
	pushq	%rbp
	.cfi_def_cfa_offset 16
	.cfi_offset 6, -16
	movq	%rsp, %rbp
	.cfi_def_cfa_register 6
	subq	$80, %rsp
	movq	%rdi, -56(%rbp)
	movq	%rsi, -64(%rbp)
	movq	%rdx, -72(%rbp)
	movl	%ecx, -76(%rbp)
	movq	%fs:40, %rax
	movq	%rax, -8(%rbp)
	xorl	%eax, %eax
	movq	-64(%rbp), %rax
	movl	132(%rax), %eax
	testl	%eax, %eax
	sete	%al
	movzbl	%al, %eax
	movl	$0, %r9d
	movl	$4090, %r8d
	leaq	.LC74(%rip), %rcx
	leaq	.LC95(%rip), %rdx
	movl	$71, %esi
	movl	%eax, %edi
	movl	$0, %eax
	call	_ecs_assert
	movq	-64(%rbp), %rax
	movl	132(%rax), %eax
	testl	%eax, %eax
	je	.L587
	leaq	__PRETTY_FUNCTION__.8641(%rip), %rcx
	movl	$4090, %edx
	leaq	.LC74(%rip), %rsi
	leaq	.LC95(%rip), %rdi
	call	__assert_fail@PLT
.L587:
	movq	-72(%rbp), %rax
	movq	%rax, %rdi
	call	flecs_table_data_count
	movl	%eax, -36(%rbp)
	movl	-36(%rbp), %eax
	cmpl	-76(%rbp), %eax
	jge	.L588
	movl	-76(%rbp), %ecx
	movq	-72(%rbp), %rdx
	movq	-64(%rbp), %rsi
	movq	-56(%rbp), %rax
	movl	$0, %r9d
	movl	%ecx, %r8d
	movl	$0, %ecx
	movq	%rax, %rdi
	call	grow_data
	jmp	.L591
.L588:
	cmpl	$0, -76(%rbp)
	jne	.L591
	movq	-64(%rbp), %rax
	movl	20(%rax), %eax
	movl	%eax, -48(%rbp)
	movq	-64(%rbp), %rax
	movl	116(%rax), %eax
	movl	%eax, -44(%rbp)
	movq	-64(%rbp), %rax
	movl	124(%rax), %eax
	movl	%eax, -40(%rbp)
	leaq	-40(%rbp), %r9
	leaq	-44(%rbp), %r8
	leaq	-48(%rbp), %rcx
	movq	-72(%rbp), %rdx
	movq	-64(%rbp), %rsi
	movq	-56(%rbp), %rax
	subq	$8, %rsp
	leaq	-16(%rbp), %rdi
	pushq	%rdi
	leaq	-24(%rbp), %rdi
	pushq	%rdi
	leaq	-32(%rbp), %rdi
	pushq	%rdi
	movq	%rax, %rdi
	call	ensure_data
	addq	$32, %rsp
.L591:
	nop
	movq	-8(%rbp), %rax
	xorq	%fs:40, %rax
	je	.L590
	call	__stack_chk_fail@PLT
.L590:
	leave
	.cfi_def_cfa 7, 8
	ret
	.cfi_endproc
.LFE66:
	.size	flecs_table_set_size, .-flecs_table_set_size
	.globl	flecs_table_data_count
	.type	flecs_table_data_count, @function
flecs_table_data_count:
.LFB67:
	.cfi_startproc
	endbr64
	pushq	%rbp
	.cfi_def_cfa_offset 16
	.cfi_offset 6, -16
	movq	%rsp, %rbp
	.cfi_def_cfa_register 6
	subq	$16, %rsp
	movq	%rdi, -8(%rbp)
	cmpq	$0, -8(%rbp)
	je	.L593
	movq	-8(%rbp), %rax
	movq	(%rax), %rax
	movq	%rax, %rdi
	call	ecs_vector_count
	jmp	.L595
.L593:
	movl	$0, %eax
.L595:
	leave
	.cfi_def_cfa 7, 8
	ret
	.cfi_endproc
.LFE67:
	.size	flecs_table_data_count, .-flecs_table_data_count
	.type	swap_switch_columns, @function
swap_switch_columns:
.LFB68:
	.cfi_startproc
	endbr64
	pushq	%rbp
	.cfi_def_cfa_offset 16
	.cfi_offset 6, -16
	movq	%rsp, %rbp
	.cfi_def_cfa_register 6
	subq	$64, %rsp
	movq	%rdi, -40(%rbp)
	movq	%rsi, -48(%rbp)
	movl	%edx, -52(%rbp)
	movl	%ecx, -56(%rbp)
	movl	$0, -24(%rbp)
	movq	-40(%rbp), %rax
	movl	116(%rax), %eax
	movl	%eax, -20(%rbp)
	cmpl	$0, -20(%rbp)
	je	.L601
	movq	-48(%rbp), %rax
	movq	24(%rax), %rax
	movq	%rax, -16(%rbp)
	movl	$0, -24(%rbp)
	jmp	.L599
.L600:
	movl	-24(%rbp), %eax
	cltq
	salq	$4, %rax
	movq	%rax, %rdx
	movq	-16(%rbp), %rax
	addq	%rdx, %rax
	movq	(%rax), %rax
	movq	%rax, -8(%rbp)
	movl	-56(%rbp), %edx
	movl	-52(%rbp), %ecx
	movq	-8(%rbp), %rax
	movl	%ecx, %esi
	movq	%rax, %rdi
	call	flecs_switch_swap
	addl	$1, -24(%rbp)
.L599:
	movl	-24(%rbp), %eax
	cmpl	-20(%rbp), %eax
	jl	.L600
	jmp	.L596
.L601:
	nop
.L596:
	leave
	.cfi_def_cfa 7, 8
	ret
	.cfi_endproc
.LFE68:
	.size	swap_switch_columns, .-swap_switch_columns
	.type	swap_bitset_columns, @function
swap_bitset_columns:
.LFB69:
	.cfi_startproc
	endbr64
	pushq	%rbp
	.cfi_def_cfa_offset 16
	.cfi_offset 6, -16
	movq	%rsp, %rbp
	.cfi_def_cfa_register 6
	subq	$64, %rsp
	movq	%rdi, -40(%rbp)
	movq	%rsi, -48(%rbp)
	movl	%edx, -52(%rbp)
	movl	%ecx, -56(%rbp)
	movl	$0, -24(%rbp)
	movq	-40(%rbp), %rax
	movl	124(%rax), %eax
	movl	%eax, -20(%rbp)
	cmpl	$0, -20(%rbp)
	je	.L607
	movq	-48(%rbp), %rax
	movq	32(%rax), %rax
	movq	%rax, -16(%rbp)
	movl	$0, -24(%rbp)
	jmp	.L605
.L606:
	movl	-24(%rbp), %eax
	cltq
	salq	$4, %rax
	movq	%rax, %rdx
	movq	-16(%rbp), %rax
	addq	%rdx, %rax
	movq	%rax, -8(%rbp)
	movl	-56(%rbp), %edx
	movl	-52(%rbp), %ecx
	movq	-8(%rbp), %rax
	movl	%ecx, %esi
	movq	%rax, %rdi
	call	flecs_bitset_swap
	addl	$1, -24(%rbp)
.L605:
	movl	-24(%rbp), %eax
	cmpl	-20(%rbp), %eax
	jl	.L606
	jmp	.L602
.L607:
	nop
.L602:
	leave
	.cfi_def_cfa 7, 8
	ret
	.cfi_endproc
.LFE69:
	.size	swap_bitset_columns, .-swap_bitset_columns
	.section	.rodata
.LC163:
	.string	"row_1 >= 0"
.LC164:
	.string	"row_2 >= 0"
.LC165:
	.string	"record_ptr_1 != NULL"
.LC166:
	.string	"record_ptr_1 != ((void *)0)"
.LC167:
	.string	"record_ptr_2 != NULL"
.LC168:
	.string	"record_ptr_2 != ((void *)0)"
	.text
	.globl	flecs_table_swap
	.type	flecs_table_swap, @function
flecs_table_swap:
.LFB70:
	.cfi_startproc
	endbr64
	pushq	%rbp
	.cfi_def_cfa_offset 16
	.cfi_offset 6, -16
	movq	%rsp, %rbp
	.cfi_def_cfa_register 6
	subq	$144, %rsp
	movq	%rdi, -120(%rbp)
	movq	%rsi, -128(%rbp)
	movq	%rdx, -136(%rbp)
	movl	%ecx, -140(%rbp)
	movl	%r8d, -144(%rbp)
	movq	%fs:40, %rax
	movq	%rax, -8(%rbp)
	xorl	%eax, %eax
	movq	-128(%rbp), %rax
	movl	132(%rax), %eax
	testl	%eax, %eax
	sete	%al
	movzbl	%al, %eax
	movl	$0, %r9d
	movl	$4165, %r8d
	leaq	.LC74(%rip), %rcx
	leaq	.LC95(%rip), %rdx
	movl	$71, %esi
	movl	%eax, %edi
	movl	$0, %eax
	call	_ecs_assert
	movq	-128(%rbp), %rax
	movl	132(%rax), %eax
	testl	%eax, %eax
	je	.L609
	leaq	__PRETTY_FUNCTION__.8685(%rip), %rcx
	movl	$4165, %edx
	leaq	.LC74(%rip), %rsi
	leaq	.LC95(%rip), %rdi
	call	__assert_fail@PLT
.L609:
	cmpq	$0, -136(%rbp)
	setne	%al
	movzbl	%al, %eax
	movl	$0, %r9d
	movl	$4166, %r8d
	leaq	.LC74(%rip), %rcx
	leaq	.LC122(%rip), %rdx
	movl	$7, %esi
	movl	%eax, %edi
	movl	$0, %eax
	call	_ecs_assert
	cmpq	$0, -136(%rbp)
	jne	.L610
	leaq	__PRETTY_FUNCTION__.8685(%rip), %rcx
	movl	$4166, %edx
	leaq	.LC74(%rip), %rsi
	leaq	.LC123(%rip), %rdi
	call	__assert_fail@PLT
.L610:
	movl	-140(%rbp), %eax
	notl	%eax
	shrl	$31, %eax
	movzbl	%al, %eax
	movl	$0, %r9d
	movl	$4167, %r8d
	leaq	.LC74(%rip), %rcx
	leaq	.LC163(%rip), %rdx
	movl	$7, %esi
	movl	%eax, %edi
	movl	$0, %eax
	call	_ecs_assert
	cmpl	$0, -140(%rbp)
	jns	.L611
	leaq	__PRETTY_FUNCTION__.8685(%rip), %rcx
	movl	$4167, %edx
	leaq	.LC74(%rip), %rsi
	leaq	.LC163(%rip), %rdi
	call	__assert_fail@PLT
.L611:
	movl	-144(%rbp), %eax
	notl	%eax
	shrl	$31, %eax
	movzbl	%al, %eax
	movl	$0, %r9d
	movl	$4168, %r8d
	leaq	.LC74(%rip), %rcx
	leaq	.LC164(%rip), %rdx
	movl	$7, %esi
	movl	%eax, %edi
	movl	$0, %eax
	call	_ecs_assert
	cmpl	$0, -144(%rbp)
	jns	.L612
	leaq	__PRETTY_FUNCTION__.8685(%rip), %rcx
	movl	$4168, %edx
	leaq	.LC74(%rip), %rsi
	leaq	.LC164(%rip), %rdi
	call	__assert_fail@PLT
.L612:
	movl	-140(%rbp), %eax
	cmpl	-144(%rbp), %eax
	je	.L625
	movq	-128(%rbp), %rax
	movl	$0, %esi
	movq	%rax, %rdi
	call	mark_table_dirty
	movq	-136(%rbp), %rax
	movq	(%rax), %rax
	movl	$16, %edx
	movl	$8, %esi
	movq	%rax, %rdi
	call	_ecs_vector_first
	movq	%rax, -96(%rbp)
	movl	-140(%rbp), %eax
	cltq
	leaq	0(,%rax,8), %rdx
	movq	-96(%rbp), %rax
	addq	%rdx, %rax
	movq	(%rax), %rax
	movq	%rax, -88(%rbp)
	movl	-144(%rbp), %eax
	cltq
	leaq	0(,%rax,8), %rdx
	movq	-96(%rbp), %rax
	addq	%rdx, %rax
	movq	(%rax), %rax
	movq	%rax, -80(%rbp)
	movq	-136(%rbp), %rax
	movq	8(%rax), %rax
	movl	$16, %edx
	movl	$8, %esi
	movq	%rax, %rdi
	call	_ecs_vector_first
	movq	%rax, -72(%rbp)
	movl	-140(%rbp), %eax
	cltq
	leaq	0(,%rax,8), %rdx
	movq	-72(%rbp), %rax
	addq	%rdx, %rax
	movq	(%rax), %rax
	movq	%rax, -64(%rbp)
	movl	-144(%rbp), %eax
	cltq
	leaq	0(,%rax,8), %rdx
	movq	-72(%rbp), %rax
	addq	%rdx, %rax
	movq	(%rax), %rax
	movq	%rax, -56(%rbp)
	cmpq	$0, -64(%rbp)
	setne	%al
	movzbl	%al, %eax
	movl	$0, %r9d
	movl	$4185, %r8d
	leaq	.LC74(%rip), %rcx
	leaq	.LC165(%rip), %rdx
	movl	$7, %esi
	movl	%eax, %edi
	movl	$0, %eax
	call	_ecs_assert
	cmpq	$0, -64(%rbp)
	jne	.L615
	leaq	__PRETTY_FUNCTION__.8685(%rip), %rcx
	movl	$4185, %edx
	leaq	.LC74(%rip), %rsi
	leaq	.LC166(%rip), %rdi
	call	__assert_fail@PLT
.L615:
	cmpq	$0, -56(%rbp)
	setne	%al
	movzbl	%al, %eax
	movl	$0, %r9d
	movl	$4186, %r8d
	leaq	.LC74(%rip), %rcx
	leaq	.LC167(%rip), %rdx
	movl	$7, %esi
	movl	%eax, %edi
	movl	$0, %eax
	call	_ecs_assert
	cmpq	$0, -56(%rbp)
	jne	.L616
	leaq	__PRETTY_FUNCTION__.8685(%rip), %rcx
	movl	$4186, %edx
	leaq	.LC74(%rip), %rsi
	leaq	.LC168(%rip), %rdi
	call	__assert_fail@PLT
.L616:
	movq	-64(%rbp), %rax
	movl	8(%rax), %eax
	shrl	$31, %eax
	movb	%al, -110(%rbp)
	movq	-56(%rbp), %rax
	movl	8(%rax), %eax
	shrl	$31, %eax
	movb	%al, -109(%rbp)
	movl	-140(%rbp), %eax
	cltq
	leaq	0(,%rax,8), %rdx
	movq	-96(%rbp), %rax
	addq	%rax, %rdx
	movq	-80(%rbp), %rax
	movq	%rax, (%rdx)
	movl	-144(%rbp), %eax
	cltq
	leaq	0(,%rax,8), %rdx
	movq	-96(%rbp), %rax
	addq	%rax, %rdx
	movq	-88(%rbp), %rax
	movq	%rax, (%rdx)
	movzbl	-110(%rbp), %edx
	movl	-144(%rbp), %eax
	movl	%edx, %esi
	movl	%eax, %edi
	call	flecs_row_to_record
	movq	-64(%rbp), %rdx
	movl	%eax, 8(%rdx)
	movzbl	-109(%rbp), %edx
	movl	-140(%rbp), %eax
	movl	%edx, %esi
	movl	%eax, %edi
	call	flecs_row_to_record
	movq	-56(%rbp), %rdx
	movl	%eax, 8(%rdx)
	movl	-140(%rbp), %eax
	cltq
	leaq	0(,%rax,8), %rdx
	movq	-72(%rbp), %rax
	addq	%rax, %rdx
	movq	-56(%rbp), %rax
	movq	%rax, (%rdx)
	movl	-144(%rbp), %eax
	cltq
	leaq	0(,%rax,8), %rdx
	movq	-72(%rbp), %rax
	addq	%rax, %rdx
	movq	-64(%rbp), %rax
	movq	%rax, (%rdx)
	movl	-144(%rbp), %ecx
	movl	-140(%rbp), %edx
	movq	-136(%rbp), %rsi
	movq	-128(%rbp), %rax
	movq	%rax, %rdi
	call	swap_switch_columns
	movl	-144(%rbp), %ecx
	movl	-140(%rbp), %edx
	movq	-136(%rbp), %rsi
	movq	-128(%rbp), %rax
	movq	%rax, %rdi
	call	swap_bitset_columns
	movq	-136(%rbp), %rax
	movq	16(%rax), %rax
	movq	%rax, -48(%rbp)
	cmpq	$0, -48(%rbp)
	je	.L626
	movq	-128(%rbp), %rax
	movl	20(%rax), %eax
	movl	%eax, -100(%rbp)
	movl	$0, -104(%rbp)
	jmp	.L618
.L623:
	movl	-104(%rbp), %eax
	cltq
	salq	$4, %rax
	movq	%rax, %rdx
	movq	-48(%rbp), %rax
	addq	%rdx, %rax
	movzwl	8(%rax), %eax
	movw	%ax, -108(%rbp)
	movl	-104(%rbp), %eax
	cltq
	salq	$4, %rax
	movq	%rax, %rdx
	movq	-48(%rbp), %rax
	addq	%rdx, %rax
	movzwl	10(%rax), %eax
	movw	%ax, -106(%rbp)
	movl	$16, %eax
	cmpw	$16, -106(%rbp)
	cmovge	-106(%rbp), %ax
	movswl	%ax, %edx
	movswl	-108(%rbp), %ecx
	movl	-104(%rbp), %eax
	cltq
	salq	$4, %rax
	movq	%rax, %rsi
	movq	-48(%rbp), %rax
	addq	%rsi, %rax
	movq	(%rax), %rax
	movl	%ecx, %esi
	movq	%rax, %rdi
	call	_ecs_vector_first
	movq	%rax, -40(%rbp)
	cmpw	$0, -108(%rbp)
	je	.L619
	movswq	-108(%rbp), %rax
	leaq	8(%rax), %rdx
	movl	$16, %eax
	subq	$1, %rax
	addq	%rdx, %rax
	movl	$16, %ecx
	movl	$0, %edx
	divq	%rcx
	imulq	$16, %rax, %rax
	movq	%rax, %rdx
	andq	$-4096, %rdx
	movq	%rsp, %rdi
	subq	%rdx, %rdi
	movq	%rdi, %rdx
.L620:
	cmpq	%rdx, %rsp
	je	.L621
	subq	$4096, %rsp
	orq	$0, 4088(%rsp)
	jmp	.L620
.L621:
	movq	%rax, %rdx
	andl	$4095, %edx
	subq	%rdx, %rsp
	movq	%rax, %rdx
	andl	$4095, %edx
	testq	%rdx, %rdx
	je	.L622
	andl	$4095, %eax
	subq	$8, %rax
	addq	%rsp, %rax
	orq	$0, (%rax)
.L622:
	movq	%rsp, %rax
	addq	$15, %rax
	shrq	$4, %rax
	salq	$4, %rax
	movq	%rax, -32(%rbp)
	movswl	-108(%rbp), %eax
	imull	-140(%rbp), %eax
	movslq	%eax, %rdx
	movq	-40(%rbp), %rax
	addq	%rdx, %rax
	movq	%rax, -24(%rbp)
	movswl	-108(%rbp), %eax
	imull	-144(%rbp), %eax
	movslq	%eax, %rdx
	movq	-40(%rbp), %rax
	addq	%rdx, %rax
	movq	%rax, -16(%rbp)
	movswq	-108(%rbp), %rdx
	movq	-24(%rbp), %rcx
	movq	-32(%rbp), %rax
	movq	%rcx, %rsi
	movq	%rax, %rdi
	call	memcpy@PLT
	movswq	-108(%rbp), %rdx
	movq	-16(%rbp), %rcx
	movq	-24(%rbp), %rax
	movq	%rcx, %rsi
	movq	%rax, %rdi
	call	memcpy@PLT
	movswq	-108(%rbp), %rdx
	movq	-32(%rbp), %rcx
	movq	-16(%rbp), %rax
	movq	%rcx, %rsi
	movq	%rax, %rdi
	call	memcpy@PLT
.L619:
	addl	$1, -104(%rbp)
.L618:
	movl	-104(%rbp), %eax
	cmpl	-100(%rbp), %eax
	jl	.L623
	jmp	.L608
.L625:
	nop
	jmp	.L608
.L626:
	nop
.L608:
	movq	-8(%rbp), %rax
	xorq	%fs:40, %rax
	je	.L624
	call	__stack_chk_fail@PLT
.L624:
	leave
	.cfi_def_cfa 7, 8
	ret
	.cfi_endproc
.LFE70:
	.size	flecs_table_swap, .-flecs_table_swap
	.type	merge_vector, @function
merge_vector:
.LFB71:
	.cfi_startproc
	endbr64
	pushq	%rbp
	.cfi_def_cfa_offset 16
	.cfi_offset 6, -16
	movq	%rsp, %rbp
	.cfi_def_cfa_register 6
	subq	$80, %rsp
	movq	%rdi, -56(%rbp)
	movq	%rsi, -64(%rbp)
	movl	%ecx, %eax
	movw	%dx, -68(%rbp)
	movw	%ax, -72(%rbp)
	movq	%fs:40, %rax
	movq	%rax, -8(%rbp)
	xorl	%eax, %eax
	movq	-56(%rbp), %rax
	movq	(%rax), %rax
	movq	%rax, -32(%rbp)
	movq	-32(%rbp), %rax
	movq	%rax, %rdi
	call	ecs_vector_count
	movl	%eax, -40(%rbp)
	cmpl	$0, -40(%rbp)
	jne	.L628
	movq	-32(%rbp), %rax
	testq	%rax, %rax
	je	.L629
	movq	-32(%rbp), %rax
	movq	%rax, %rdi
	call	ecs_vector_free
.L629:
	movq	-56(%rbp), %rax
	movq	-64(%rbp), %rdx
	movq	%rdx, (%rax)
	jmp	.L632
.L628:
	movq	-64(%rbp), %rax
	movq	%rax, %rdi
	call	ecs_vector_count
	movl	%eax, -36(%rbp)
	movl	-40(%rbp), %edx
	movl	-36(%rbp), %eax
	leal	(%rdx,%rax), %ecx
	movl	$16, %eax
	cmpw	$16, -72(%rbp)
	cmovge	-72(%rbp), %ax
	movswl	%ax, %edx
	movswl	-68(%rbp), %esi
	leaq	-32(%rbp), %rax
	movq	%rax, %rdi
	call	_ecs_vector_set_count
	movl	$16, %eax
	cmpw	$16, -72(%rbp)
	cmovge	-72(%rbp), %ax
	movswl	%ax, %edx
	movswl	-68(%rbp), %ecx
	movq	-32(%rbp), %rax
	movl	%ecx, %esi
	movq	%rax, %rdi
	call	_ecs_vector_first
	movq	%rax, -24(%rbp)
	movl	$16, %eax
	cmpw	$16, -72(%rbp)
	cmovge	-72(%rbp), %ax
	movswl	%ax, %edx
	movswl	-68(%rbp), %ecx
	movq	-64(%rbp), %rax
	movl	%ecx, %esi
	movq	%rax, %rdi
	call	_ecs_vector_first
	movq	%rax, -16(%rbp)
	movswl	-68(%rbp), %eax
	imull	-40(%rbp), %eax
	movslq	%eax, %rdx
	movq	-24(%rbp), %rax
	addq	%rdx, %rax
	movq	%rax, -24(%rbp)
	movswl	-68(%rbp), %eax
	imull	-36(%rbp), %eax
	movslq	%eax, %rdx
	movq	-16(%rbp), %rcx
	movq	-24(%rbp), %rax
	movq	%rcx, %rsi
	movq	%rax, %rdi
	call	memcpy@PLT
	movq	-64(%rbp), %rax
	movq	%rax, %rdi
	call	ecs_vector_free
	movq	-32(%rbp), %rdx
	movq	-56(%rbp), %rax
	movq	%rdx, (%rax)
.L632:
	nop
	movq	-8(%rbp), %rax
	xorq	%fs:40, %rax
	je	.L631
	call	__stack_chk_fail@PLT
.L631:
	leave
	.cfi_def_cfa 7, 8
	ret
	.cfi_endproc
.LFE71:
	.size	merge_vector, .-merge_vector
	.type	merge_column, @function
merge_column:
.LFB72:
	.cfi_startproc
	endbr64
	pushq	%rbp
	.cfi_def_cfa_offset 16
	.cfi_offset 6, -16
	movq	%rsp, %rbp
	.cfi_def_cfa_register 6
	pushq	%rbx
	subq	$136, %rsp
	.cfi_offset 3, -24
	movq	%rdi, -104(%rbp)
	movq	%rsi, -112(%rbp)
	movq	%rdx, -120(%rbp)
	movl	%ecx, -124(%rbp)
	movq	%r8, -136(%rbp)
	movq	%fs:40, %rax
	movq	%rax, -24(%rbp)
	xorl	%eax, %eax
	movq	-120(%rbp), %rax
	movq	(%rax), %rax
	movl	$16, %edx
	movl	$8, %esi
	movq	%rax, %rdi
	call	_ecs_vector_first
	movq	%rax, -72(%rbp)
	movq	-112(%rbp), %rax
	movq	32(%rax), %rax
	movl	-124(%rbp), %edx
	movslq	%edx, %rdx
	salq	$3, %rdx
	addq	%rdx, %rax
	movq	(%rax), %rax
	movq	%rax, -64(%rbp)
	movq	-120(%rbp), %rax
	movq	16(%rax), %rax
	movl	-124(%rbp), %edx
	movslq	%edx, %rdx
	salq	$4, %rdx
	addq	%rdx, %rax
	movq	%rax, -56(%rbp)
	movq	-56(%rbp), %rax
	movq	(%rax), %rax
	movq	%rax, -80(%rbp)
	movq	-56(%rbp), %rax
	movzwl	8(%rax), %eax
	movw	%ax, -92(%rbp)
	movq	-56(%rbp), %rax
	movzwl	10(%rax), %eax
	movw	%ax, -90(%rbp)
	movq	-80(%rbp), %rax
	movq	%rax, %rdi
	call	ecs_vector_count
	movl	%eax, -88(%rbp)
	cmpl	$0, -88(%rbp)
	jne	.L634
	movq	-80(%rbp), %rax
	testq	%rax, %rax
	je	.L635
	movq	-80(%rbp), %rax
	movq	%rax, %rdi
	call	ecs_vector_free
.L635:
	movq	-56(%rbp), %rax
	movq	-136(%rbp), %rdx
	movq	%rdx, (%rax)
	jmp	.L641
.L634:
	movq	-136(%rbp), %rax
	movq	%rax, %rdi
	call	ecs_vector_count
	movl	%eax, -84(%rbp)
	movl	-88(%rbp), %edx
	movl	-84(%rbp), %eax
	leal	(%rdx,%rax), %ecx
	movl	$16, %eax
	cmpw	$16, -90(%rbp)
	cmovge	-90(%rbp), %ax
	movswl	%ax, %edx
	movswl	-92(%rbp), %esi
	leaq	-80(%rbp), %rax
	movq	%rax, %rdi
	call	_ecs_vector_set_count
	movq	-80(%rbp), %rdx
	movq	-56(%rbp), %rax
	movq	%rdx, (%rax)
	cmpq	$0, -64(%rbp)
	je	.L637
	movl	-84(%rbp), %r8d
	movl	-88(%rbp), %edi
	movq	-72(%rbp), %rcx
	movq	-56(%rbp), %rdx
	movq	-64(%rbp), %rsi
	movq	-104(%rbp), %rax
	movl	%r8d, %r9d
	movl	%edi, %r8d
	movq	%rax, %rdi
	call	ctor_component
.L637:
	movl	$16, %eax
	cmpw	$16, -90(%rbp)
	cmovge	-90(%rbp), %ax
	movswl	%ax, %edx
	movswl	-92(%rbp), %ecx
	movq	-80(%rbp), %rax
	movl	%ecx, %esi
	movq	%rax, %rdi
	call	_ecs_vector_first
	movq	%rax, -48(%rbp)
	movl	$16, %eax
	cmpw	$16, -90(%rbp)
	cmovge	-90(%rbp), %ax
	movswl	%ax, %edx
	movswl	-92(%rbp), %ecx
	movq	-136(%rbp), %rax
	movl	%ecx, %esi
	movq	%rax, %rdi
	call	_ecs_vector_first
	movq	%rax, -40(%rbp)
	movswl	-92(%rbp), %eax
	imull	-88(%rbp), %eax
	movslq	%eax, %rdx
	movq	-48(%rbp), %rax
	addq	%rdx, %rax
	movq	%rax, -48(%rbp)
	cmpq	$0, -64(%rbp)
	je	.L638
	movq	-64(%rbp), %rax
	movq	24(%rax), %rax
	movq	%rax, -32(%rbp)
	cmpq	$0, -32(%rbp)
	je	.L638
	movq	-64(%rbp), %rax
	movq	32(%rax), %rbx
	movswq	-92(%rbp), %rax
	movq	%rax, %rdi
	call	flecs_to_size_t
	movq	%rax, %rdi
	movq	-64(%rbp), %rax
	movq	80(%rax), %rsi
	movq	-40(%rbp), %r9
	movq	-48(%rbp), %r11
	movq	-72(%rbp), %rcx
	movq	-72(%rbp), %rdx
	movq	-104(%rbp), %rax
	subq	$8, %rsp
	pushq	%rbx
	movl	-84(%rbp), %r8d
	pushq	%r8
	pushq	%rdi
	movq	-32(%rbp), %r10
	movq	%r11, %r8
	movq	%rax, %rdi
	call	*%r10
	addq	$32, %rsp
	jmp	.L639
.L638:
	movswl	-92(%rbp), %eax
	imull	-84(%rbp), %eax
	movslq	%eax, %rdx
	movq	-40(%rbp), %rcx
	movq	-48(%rbp), %rax
	movq	%rcx, %rsi
	movq	%rax, %rdi
	call	memcpy@PLT
.L639:
	movq	-136(%rbp), %rax
	movq	%rax, %rdi
	call	ecs_vector_free
.L641:
	nop
	movq	-24(%rbp), %rax
	xorq	%fs:40, %rax
	je	.L640
	call	__stack_chk_fail@PLT
.L640:
	movq	-8(%rbp), %rbx
	leave
	.cfi_def_cfa 7, 8
	ret
	.cfi_endproc
.LFE72:
	.size	merge_column, .-merge_column
	.section	.rodata
	.align 8
.LC169:
	.string	"!new_component_count || new_columns"
	.align 8
.LC170:
	.string	"ecs_vector_count(new_data->entities) == old_count + new_count"
	.text
	.type	merge_table_data, @function
merge_table_data:
.LFB73:
	.cfi_startproc
	endbr64
	pushq	%rbp
	.cfi_def_cfa_offset 16
	.cfi_offset 6, -16
	movq	%rsp, %rbp
	.cfi_def_cfa_register 6
	subq	$192, %rsp
	movq	%rdi, -152(%rbp)
	movq	%rsi, -160(%rbp)
	movq	%rdx, -168(%rbp)
	movl	%ecx, -172(%rbp)
	movl	%r8d, -176(%rbp)
	movq	%r9, -184(%rbp)
	movl	$0, -136(%rbp)
	movq	-160(%rbp), %rax
	movl	20(%rax), %eax
	movl	%eax, -128(%rbp)
	movl	$0, -132(%rbp)
	movq	-168(%rbp), %rax
	movl	20(%rax), %eax
	movl	%eax, -124(%rbp)
	movq	-160(%rbp), %rax
	movq	8(%rax), %rax
	movl	$16, %edx
	movl	$8, %esi
	movq	%rax, %rdi
	call	_ecs_vector_first
	movq	%rax, -112(%rbp)
	movq	-168(%rbp), %rax
	movq	8(%rax), %rax
	movl	$16, %edx
	movl	$8, %esi
	movq	%rax, %rdi
	call	_ecs_vector_first
	movq	%rax, -104(%rbp)
	movq	-184(%rbp), %rax
	movq	16(%rax), %rax
	movq	%rax, -96(%rbp)
	movq	16(%rbp), %rax
	movq	16(%rax), %rax
	movq	%rax, -120(%rbp)
	cmpq	$0, -120(%rbp)
	jne	.L643
	movq	16(%rbp), %rax
	movq	(%rax), %rax
	testq	%rax, %rax
	jne	.L643
	movq	-160(%rbp), %rcx
	movq	-152(%rbp), %rax
	movq	16(%rbp), %rdx
	movq	%rcx, %rsi
	movq	%rax, %rdi
	call	flecs_init_data
	movq	16(%rbp), %rax
	movq	16(%rax), %rax
	movq	%rax, -120(%rbp)
.L643:
	cmpl	$0, -128(%rbp)
	je	.L644
	cmpq	$0, -120(%rbp)
	je	.L645
.L644:
	movl	$1, %eax
	jmp	.L646
.L645:
	movl	$0, %eax
.L646:
	andl	$1, %eax
	movzbl	%al, %eax
	movl	$0, %r9d
	movl	$4342, %r8d
	leaq	.LC74(%rip), %rcx
	leaq	.LC169(%rip), %rdx
	movl	$7, %esi
	movl	%eax, %edi
	movl	$0, %eax
	call	_ecs_assert
	cmpl	$0, -128(%rbp)
	je	.L647
	cmpq	$0, -120(%rbp)
	jne	.L647
	leaq	__PRETTY_FUNCTION__.8752(%rip), %rcx
	movl	$4342, %edx
	leaq	.LC74(%rip), %rsi
	leaq	.LC169(%rip), %rdi
	call	__assert_fail@PLT
.L647:
	cmpl	$0, -172(%rbp)
	je	.L665
	movq	-184(%rbp), %rax
	movq	(%rax), %rsi
	movq	16(%rbp), %rax
	movl	$8, %ecx
	movl	$8, %edx
	movq	%rax, %rdi
	call	merge_vector
	movq	-184(%rbp), %rax
	movq	$0, (%rax)
	movq	16(%rbp), %rax
	movq	(%rax), %rax
	movl	$16, %edx
	movl	$8, %esi
	movq	%rax, %rdi
	call	_ecs_vector_first
	movq	%rax, -88(%rbp)
	movq	16(%rbp), %rax
	movq	(%rax), %rax
	movq	%rax, %rdi
	call	ecs_vector_count
	movl	-172(%rbp), %ecx
	movl	-176(%rbp), %edx
	addl	%ecx, %edx
	cmpl	%edx, %eax
	sete	%al
	movzbl	%al, %eax
	movl	$0, %r9d
	movl	$4354, %r8d
	leaq	.LC74(%rip), %rcx
	leaq	.LC170(%rip), %rdx
	movl	$7, %esi
	movl	%eax, %edi
	movl	$0, %eax
	call	_ecs_assert
	movq	16(%rbp), %rax
	movq	(%rax), %rax
	movq	%rax, %rdi
	call	ecs_vector_count
	movl	-172(%rbp), %ecx
	movl	-176(%rbp), %edx
	addl	%ecx, %edx
	cmpl	%edx, %eax
	je	.L650
	leaq	__PRETTY_FUNCTION__.8752(%rip), %rcx
	movl	$4354, %edx
	leaq	.LC74(%rip), %rsi
	leaq	.LC170(%rip), %rdi
	call	__assert_fail@PLT
.L650:
	movq	-184(%rbp), %rax
	movq	8(%rax), %rax
	movq	16(%rbp), %rdx
	leaq	8(%rdx), %rdi
	movl	$8, %ecx
	movl	$8, %edx
	movq	%rax, %rsi
	call	merge_vector
	movq	-184(%rbp), %rax
	movq	$0, 8(%rax)
	jmp	.L651
.L658:
	movl	-136(%rbp), %eax
	cltq
	leaq	0(,%rax,8), %rdx
	movq	-112(%rbp), %rax
	addq	%rdx, %rax
	movq	(%rax), %rax
	movq	%rax, -80(%rbp)
	movl	-132(%rbp), %eax
	cltq
	leaq	0(,%rax,8), %rdx
	movq	-104(%rbp), %rax
	addq	%rdx, %rax
	movq	(%rax), %rax
	movq	%rax, -72(%rbp)
	movl	-136(%rbp), %eax
	cltq
	salq	$4, %rax
	movq	%rax, %rdx
	movq	-120(%rbp), %rax
	addq	%rdx, %rax
	movzwl	8(%rax), %eax
	movw	%ax, -144(%rbp)
	movl	-136(%rbp), %eax
	cltq
	salq	$4, %rax
	movq	%rax, %rdx
	movq	-120(%rbp), %rax
	addq	%rdx, %rax
	movzwl	10(%rax), %eax
	movw	%ax, -142(%rbp)
	movq	-80(%rbp), %rax
	cmpq	-72(%rbp), %rax
	jne	.L652
	movl	-132(%rbp), %eax
	cltq
	salq	$4, %rax
	movq	%rax, %rdx
	movq	-96(%rbp), %rax
	addq	%rdx, %rax
	movq	(%rax), %rcx
	movl	-136(%rbp), %edx
	movq	-160(%rbp), %rsi
	movq	-152(%rbp), %rax
	movq	%rcx, %r8
	movl	%edx, %ecx
	movq	16(%rbp), %rdx
	movq	%rax, %rdi
	call	merge_column
	movl	-132(%rbp), %eax
	cltq
	salq	$4, %rax
	movq	%rax, %rdx
	movq	-96(%rbp), %rax
	addq	%rdx, %rax
	movq	$0, (%rax)
	movl	-136(%rbp), %eax
	leal	1(%rax), %edx
	movq	-160(%rbp), %rax
	movl	%edx, %esi
	movq	%rax, %rdi
	call	mark_table_dirty
	addl	$1, -136(%rbp)
	addl	$1, -132(%rbp)
	jmp	.L651
.L652:
	movq	-80(%rbp), %rax
	cmpq	-72(%rbp), %rax
	jnb	.L653
	cmpw	$0, -144(%rbp)
	je	.L654
	movl	-136(%rbp), %eax
	cltq
	salq	$4, %rax
	movq	%rax, %rdx
	movq	-120(%rbp), %rax
	addq	%rdx, %rax
	movq	%rax, -48(%rbp)
	movl	-172(%rbp), %edx
	movl	-176(%rbp), %eax
	leal	(%rdx,%rax), %ecx
	movl	$16, %eax
	cmpw	$16, -142(%rbp)
	cmovge	-142(%rbp), %ax
	movswl	%ax, %edx
	movswl	-144(%rbp), %esi
	movq	-48(%rbp), %rax
	movq	%rax, %rdi
	call	_ecs_vector_set_count
	movq	-160(%rbp), %rax
	movq	32(%rax), %rax
	movl	-136(%rbp), %edx
	movslq	%edx, %rdx
	salq	$3, %rdx
	addq	%rdx, %rax
	movq	(%rax), %rax
	movq	%rax, -40(%rbp)
	cmpq	$0, -40(%rbp)
	je	.L654
	movl	-172(%rbp), %edx
	movl	-176(%rbp), %eax
	leal	(%rdx,%rax), %edi
	movq	-88(%rbp), %rcx
	movq	-48(%rbp), %rdx
	movq	-40(%rbp), %rsi
	movq	-152(%rbp), %rax
	movl	%edi, %r9d
	movl	$0, %r8d
	movq	%rax, %rdi
	call	ctor_component
.L654:
	addl	$1, -136(%rbp)
	jmp	.L651
.L653:
	movq	-80(%rbp), %rax
	cmpq	-72(%rbp), %rax
	jbe	.L651
	cmpw	$0, -144(%rbp)
	je	.L655
	movl	-132(%rbp), %eax
	cltq
	salq	$4, %rax
	movq	%rax, %rdx
	movq	-96(%rbp), %rax
	addq	%rdx, %rax
	movq	%rax, -64(%rbp)
	movq	-168(%rbp), %rax
	movq	32(%rax), %rax
	movl	-132(%rbp), %edx
	movslq	%edx, %rdx
	salq	$3, %rdx
	addq	%rdx, %rax
	movq	(%rax), %rax
	movq	%rax, -56(%rbp)
	cmpq	$0, -56(%rbp)
	je	.L656
	movl	-172(%rbp), %edi
	movq	-88(%rbp), %rcx
	movq	-64(%rbp), %rdx
	movq	-56(%rbp), %rsi
	movq	-152(%rbp), %rax
	movl	%edi, %r9d
	movl	$0, %r8d
	movq	%rax, %rdi
	call	dtor_component
.L656:
	movq	-64(%rbp), %rax
	movq	(%rax), %rax
	movq	%rax, %rdi
	call	ecs_vector_free
	movq	-64(%rbp), %rax
	movq	$0, (%rax)
.L655:
	addl	$1, -132(%rbp)
.L651:
	movl	-136(%rbp), %eax
	cmpl	-128(%rbp), %eax
	jge	.L657
	movl	-132(%rbp), %eax
	cmpl	-124(%rbp), %eax
	jl	.L658
.L657:
	movq	-184(%rbp), %rdi
	movq	-168(%rbp), %rcx
	movl	-176(%rbp), %edx
	movq	-160(%rbp), %rax
	subq	$8, %rsp
	movl	-172(%rbp), %esi
	pushq	%rsi
	movl	$0, %r9d
	movq	%rdi, %r8
	movq	16(%rbp), %rsi
	movq	%rax, %rdi
	call	move_switch_columns
	addq	$16, %rsp
	jmp	.L659
.L661:
	movl	-136(%rbp), %eax
	cltq
	salq	$4, %rax
	movq	%rax, %rdx
	movq	-120(%rbp), %rax
	addq	%rdx, %rax
	movq	%rax, -16(%rbp)
	movq	-16(%rbp), %rax
	movzwl	8(%rax), %eax
	movw	%ax, -140(%rbp)
	movq	-16(%rbp), %rax
	movzwl	10(%rax), %eax
	movw	%ax, -138(%rbp)
	cmpw	$0, -140(%rbp)
	je	.L660
	movl	-172(%rbp), %edx
	movl	-176(%rbp), %eax
	leal	(%rdx,%rax), %ecx
	movl	$16, %eax
	cmpw	$16, -138(%rbp)
	cmovge	-138(%rbp), %ax
	movswl	%ax, %edx
	movswl	-140(%rbp), %esi
	movq	-16(%rbp), %rax
	movq	%rax, %rdi
	call	_ecs_vector_set_count
	movq	-160(%rbp), %rax
	movq	32(%rax), %rax
	movl	-136(%rbp), %edx
	movslq	%edx, %rdx
	salq	$3, %rdx
	addq	%rdx, %rax
	movq	(%rax), %rax
	movq	%rax, -8(%rbp)
	cmpq	$0, -8(%rbp)
	je	.L660
	movl	-172(%rbp), %edx
	movl	-176(%rbp), %eax
	leal	(%rdx,%rax), %edi
	movq	-88(%rbp), %rcx
	movq	-16(%rbp), %rdx
	movq	-8(%rbp), %rsi
	movq	-152(%rbp), %rax
	movl	%edi, %r9d
	movl	$0, %r8d
	movq	%rax, %rdi
	call	ctor_component
.L660:
	addl	$1, -136(%rbp)
.L659:
	movl	-136(%rbp), %eax
	cmpl	-128(%rbp), %eax
	jl	.L661
	jmp	.L662
.L664:
	movl	-132(%rbp), %eax
	cltq
	salq	$4, %rax
	movq	%rax, %rdx
	movq	-96(%rbp), %rax
	addq	%rdx, %rax
	movq	%rax, -32(%rbp)
	movq	-168(%rbp), %rax
	movq	32(%rax), %rax
	movl	-132(%rbp), %edx
	movslq	%edx, %rdx
	salq	$3, %rdx
	addq	%rdx, %rax
	movq	(%rax), %rax
	movq	%rax, -24(%rbp)
	cmpq	$0, -24(%rbp)
	je	.L663
	movl	-172(%rbp), %edi
	movq	-88(%rbp), %rcx
	movq	-32(%rbp), %rdx
	movq	-24(%rbp), %rsi
	movq	-152(%rbp), %rax
	movl	%edi, %r9d
	movl	$0, %r8d
	movq	%rax, %rdi
	call	dtor_component
.L663:
	movq	-32(%rbp), %rax
	movq	(%rax), %rax
	movq	%rax, %rdi
	call	ecs_vector_free
	movq	-32(%rbp), %rax
	movq	$0, (%rax)
	addl	$1, -132(%rbp)
.L662:
	movl	-132(%rbp), %eax
	cmpl	-124(%rbp), %eax
	jl	.L664
	movq	-160(%rbp), %rax
	movl	$0, %esi
	movq	%rax, %rdi
	call	mark_table_dirty
	jmp	.L642
.L665:
	nop
.L642:
	leave
	.cfi_def_cfa 7, 8
	ret
	.cfi_endproc
.LFE73:
	.size	merge_table_data, .-merge_table_data
	.globl	ecs_table_count
	.type	ecs_table_count, @function
ecs_table_count:
.LFB74:
	.cfi_startproc
	endbr64
	pushq	%rbp
	.cfi_def_cfa_offset 16
	.cfi_offset 6, -16
	movq	%rsp, %rbp
	.cfi_def_cfa_register 6
	subq	$32, %rsp
	movq	%rdi, -24(%rbp)
	cmpq	$0, -24(%rbp)
	setne	%al
	movzbl	%al, %eax
	movl	$0, %r9d
	movl	$4460, %r8d
	leaq	.LC74(%rip), %rcx
	leaq	.LC93(%rip), %rdx
	movl	$7, %esi
	movl	%eax, %edi
	movl	$0, %eax
	call	_ecs_assert
	cmpq	$0, -24(%rbp)
	jne	.L667
	leaq	__PRETTY_FUNCTION__.8780(%rip), %rcx
	movl	$4460, %edx
	leaq	.LC74(%rip), %rsi
	leaq	.LC94(%rip), %rdi
	call	__assert_fail@PLT
.L667:
	movq	-24(%rbp), %rax
	movq	24(%rax), %rax
	movq	%rax, -8(%rbp)
	cmpq	$0, -8(%rbp)
	jne	.L668
	movl	$0, %eax
	jmp	.L669
.L668:
	movq	-8(%rbp), %rax
	movq	%rax, %rdi
	call	flecs_table_data_count
.L669:
	leave
	.cfi_def_cfa 7, 8
	ret
	.cfi_endproc
.LFE74:
	.size	ecs_table_count, .-ecs_table_count
	.section	.rodata
.LC171:
	.string	"record != NULL"
.LC172:
	.string	"record != ((void *)0)"
	.text
	.globl	flecs_table_merge
	.type	flecs_table_merge, @function
flecs_table_merge:
.LFB75:
	.cfi_startproc
	endbr64
	pushq	%rbp
	.cfi_def_cfa_offset 16
	.cfi_offset 6, -16
	movq	%rsp, %rbp
	.cfi_def_cfa_register 6
	pushq	%rbx
	subq	$104, %rsp
	.cfi_offset 3, -24
	movq	%rdi, -72(%rbp)
	movq	%rsi, -80(%rbp)
	movq	%rdx, -88(%rbp)
	movq	%rcx, -96(%rbp)
	movq	%r8, -104(%rbp)
	cmpq	$0, -88(%rbp)
	setne	%al
	movzbl	%al, %eax
	movl	$0, %r9d
	movl	$4476, %r8d
	leaq	.LC74(%rip), %rcx
	leaq	.LC153(%rip), %rdx
	movl	$7, %esi
	movl	%eax, %edi
	movl	$0, %eax
	call	_ecs_assert
	cmpq	$0, -88(%rbp)
	jne	.L671
	leaq	__PRETTY_FUNCTION__.8789(%rip), %rcx
	movl	$4476, %edx
	leaq	.LC74(%rip), %rsi
	leaq	.LC154(%rip), %rdi
	call	__assert_fail@PLT
.L671:
	movq	-88(%rbp), %rax
	movl	132(%rax), %eax
	testl	%eax, %eax
	sete	%al
	movzbl	%al, %eax
	movl	$0, %r9d
	movl	$4477, %r8d
	leaq	.LC74(%rip), %rcx
	leaq	.LC156(%rip), %rdx
	movl	$71, %esi
	movl	%eax, %edi
	movl	$0, %eax
	call	_ecs_assert
	movq	-88(%rbp), %rax
	movl	132(%rax), %eax
	testl	%eax, %eax
	je	.L672
	leaq	__PRETTY_FUNCTION__.8789(%rip), %rcx
	movl	$4477, %edx
	leaq	.LC74(%rip), %rsi
	leaq	.LC156(%rip), %rdi
	call	__assert_fail@PLT
.L672:
	movb	$0, -54(%rbp)
	cmpq	$0, -80(%rbp)
	jne	.L673
	movq	-104(%rbp), %rdx
	movq	-88(%rbp), %rcx
	movq	-72(%rbp), %rax
	movq	%rcx, %rsi
	movq	%rax, %rdi
	call	flecs_table_clear_data
	movl	$0, %eax
	jmp	.L674
.L673:
	movq	-80(%rbp), %rax
	movl	132(%rax), %eax
	testl	%eax, %eax
	sete	%al
	movzbl	%al, %eax
	movl	$0, %r9d
	movl	$4486, %r8d
	leaq	.LC74(%rip), %rcx
	leaq	.LC155(%rip), %rdx
	movl	$71, %esi
	movl	%eax, %edi
	movl	$0, %eax
	call	_ecs_assert
	movq	-80(%rbp), %rax
	movl	132(%rax), %eax
	testl	%eax, %eax
	je	.L675
	leaq	__PRETTY_FUNCTION__.8789(%rip), %rcx
	movl	$4486, %edx
	leaq	.LC74(%rip), %rsi
	leaq	.LC155(%rip), %rdi
	call	__assert_fail@PLT
.L675:
	cmpq	$0, -104(%rbp)
	jne	.L676
	movl	$0, %eax
	jmp	.L674
.L676:
	cmpq	$0, -96(%rbp)
	jne	.L677
	movq	-80(%rbp), %rax
	movq	%rax, %rdi
	call	flecs_table_get_or_create_data
	movq	%rax, -96(%rbp)
	movq	-80(%rbp), %rax
	cmpq	-88(%rbp), %rax
	jne	.L677
	movb	$1, -54(%rbp)
.L677:
	movq	-104(%rbp), %rax
	movq	(%rax), %rax
	movl	$16, %edx
	movl	$8, %esi
	movq	%rax, %rdi
	call	_ecs_vector_first
	movq	%rax, -32(%rbp)
	movq	-104(%rbp), %rax
	movq	(%rax), %rax
	movq	%rax, %rdi
	call	ecs_vector_count
	movl	%eax, -48(%rbp)
	movq	-96(%rbp), %rax
	movq	(%rax), %rax
	movq	%rax, %rdi
	call	ecs_vector_count
	movl	%eax, -44(%rbp)
	movq	-104(%rbp), %rax
	movq	8(%rax), %rax
	movl	$16, %edx
	movl	$8, %esi
	movq	%rax, %rdi
	call	_ecs_vector_first
	movq	%rax, -24(%rbp)
	movl	$0, -52(%rbp)
	jmp	.L678
.L681:
	movq	-80(%rbp), %rax
	cmpq	-88(%rbp), %rax
	je	.L679
	movl	-52(%rbp), %eax
	cltq
	leaq	0(,%rax,8), %rdx
	movq	-24(%rbp), %rax
	addq	%rdx, %rax
	movq	(%rax), %rax
	movq	%rax, -40(%rbp)
	cmpq	$0, -40(%rbp)
	setne	%al
	movzbl	%al, %eax
	movl	$0, %r9d
	movl	$4514, %r8d
	leaq	.LC74(%rip), %rcx
	leaq	.LC171(%rip), %rdx
	movl	$7, %esi
	movl	%eax, %edi
	movl	$0, %eax
	call	_ecs_assert
	cmpq	$0, -40(%rbp)
	jne	.L680
	leaq	__PRETTY_FUNCTION__.8789(%rip), %rcx
	movl	$4514, %edx
	leaq	.LC74(%rip), %rsi
	leaq	.LC172(%rip), %rdi
	call	__assert_fail@PLT
.L679:
	movl	-52(%rbp), %eax
	cltq
	leaq	0(,%rax,8), %rdx
	movq	-32(%rbp), %rax
	addq	%rdx, %rax
	movq	(%rax), %rdx
	movq	-72(%rbp), %rax
	movq	40(%rax), %rax
	movl	$16, %esi
	movq	%rax, %rdi
	call	_flecs_sparse_ensure
	movq	%rax, -40(%rbp)
.L680:
	movq	-40(%rbp), %rax
	movl	8(%rax), %eax
	shrl	$31, %eax
	movb	%al, -53(%rbp)
	movzbl	-53(%rbp), %eax
	movl	-44(%rbp), %ecx
	movl	-52(%rbp), %edx
	addl	%ecx, %edx
	movl	%eax, %esi
	movl	%edx, %edi
	call	flecs_row_to_record
	movq	-40(%rbp), %rdx
	movl	%eax, 8(%rdx)
	movq	-40(%rbp), %rax
	movq	-80(%rbp), %rdx
	movq	%rdx, (%rax)
	addl	$1, -52(%rbp)
.L678:
	movl	-52(%rbp), %eax
	cmpl	-48(%rbp), %eax
	jl	.L681
	cmpb	$0, -54(%rbp)
	je	.L682
	movq	-96(%rbp), %rax
	movq	-104(%rbp), %rdx
	movq	(%rdx), %rcx
	movq	8(%rdx), %rbx
	movq	%rcx, (%rax)
	movq	%rbx, 8(%rax)
	movq	16(%rdx), %rcx
	movq	24(%rdx), %rbx
	movq	%rcx, 16(%rax)
	movq	%rbx, 24(%rax)
	movq	32(%rdx), %rdx
	movq	%rdx, 32(%rax)
	jmp	.L683
.L682:
	movq	-104(%rbp), %r8
	movl	-44(%rbp), %edi
	movl	-48(%rbp), %ecx
	movq	-88(%rbp), %rdx
	movq	-80(%rbp), %rsi
	movq	-72(%rbp), %rax
	subq	$8, %rsp
	pushq	-96(%rbp)
	movq	%r8, %r9
	movl	%edi, %r8d
	movq	%rax, %rdi
	call	merge_table_data
	addq	$16, %rsp
.L683:
	movq	-80(%rbp), %rax
	movl	112(%rax), %eax
	leal	1(%rax), %edx
	movq	-80(%rbp), %rax
	movl	%edx, 112(%rax)
	cmpl	$0, -44(%rbp)
	jne	.L684
	cmpl	$0, -48(%rbp)
	je	.L684
	movq	-80(%rbp), %rsi
	movq	-72(%rbp), %rax
	movl	$1, %ecx
	movl	$0, %edx
	movq	%rax, %rdi
	call	table_activate
.L684:
	movq	-96(%rbp), %rax
.L674:
	movq	-8(%rbp), %rbx
	leave
	.cfi_def_cfa 7, 8
	ret
	.cfi_endproc
.LFE75:
	.size	flecs_table_merge, .-flecs_table_merge
	.section	.rodata
.LC173:
	.string	"!data || data != table_data"
	.text
	.globl	flecs_table_replace_data
	.type	flecs_table_replace_data, @function
flecs_table_replace_data:
.LFB76:
	.cfi_startproc
	endbr64
	pushq	%rbp
	.cfi_def_cfa_offset 16
	.cfi_offset 6, -16
	movq	%rsp, %rbp
	.cfi_def_cfa_register 6
	pushq	%rbx
	subq	$56, %rsp
	.cfi_offset 3, -24
	movq	%rdi, -40(%rbp)
	movq	%rsi, -48(%rbp)
	movq	%rdx, -56(%rbp)
	movl	$0, -32(%rbp)
	movq	-48(%rbp), %rax
	movq	24(%rax), %rax
	movq	%rax, -24(%rbp)
	cmpq	$0, -56(%rbp)
	je	.L686
	movq	-56(%rbp), %rax
	cmpq	-24(%rbp), %rax
	je	.L687
.L686:
	movl	$1, %eax
	jmp	.L688
.L687:
	movl	$0, %eax
.L688:
	andl	$1, %eax
	movzbl	%al, %eax
	movl	$0, %r9d
	movl	$4548, %r8d
	leaq	.LC74(%rip), %rcx
	leaq	.LC173(%rip), %rdx
	movl	$7, %esi
	movl	%eax, %edi
	movl	$0, %eax
	call	_ecs_assert
	cmpq	$0, -56(%rbp)
	je	.L689
	movq	-56(%rbp), %rax
	cmpq	-24(%rbp), %rax
	jne	.L689
	leaq	__PRETTY_FUNCTION__.8808(%rip), %rcx
	movl	$4548, %edx
	leaq	.LC74(%rip), %rsi
	leaq	.LC173(%rip), %rdi
	call	__assert_fail@PLT
.L689:
	movq	-48(%rbp), %rax
	movl	132(%rax), %eax
	testl	%eax, %eax
	sete	%al
	movzbl	%al, %eax
	movl	$0, %r9d
	movl	$4549, %r8d
	leaq	.LC74(%rip), %rcx
	leaq	.LC95(%rip), %rdx
	movl	$71, %esi
	movl	%eax, %edi
	movl	$0, %eax
	call	_ecs_assert
	movq	-48(%rbp), %rax
	movl	132(%rax), %eax
	testl	%eax, %eax
	je	.L690
	leaq	__PRETTY_FUNCTION__.8808(%rip), %rcx
	movl	$4549, %edx
	leaq	.LC74(%rip), %rsi
	leaq	.LC95(%rip), %rdi
	call	__assert_fail@PLT
.L690:
	cmpq	$0, -24(%rbp)
	je	.L691
	movq	-24(%rbp), %rax
	movq	(%rax), %rax
	movq	%rax, %rdi
	call	ecs_vector_count
	movl	%eax, -32(%rbp)
	movq	-24(%rbp), %rdx
	movq	-48(%rbp), %rcx
	movq	-40(%rbp), %rax
	movq	%rcx, %rsi
	movq	%rax, %rdi
	call	run_on_remove
	movq	-24(%rbp), %rdx
	movq	-48(%rbp), %rcx
	movq	-40(%rbp), %rax
	movq	%rcx, %rsi
	movq	%rax, %rdi
	call	flecs_table_clear_data
.L691:
	cmpq	$0, -56(%rbp)
	je	.L696
	movq	-48(%rbp), %rax
	movq	%rax, %rdi
	call	flecs_table_get_or_create_data
	movq	%rax, -24(%rbp)
	movq	-24(%rbp), %rax
	movq	-56(%rbp), %rdx
	movq	(%rdx), %rcx
	movq	8(%rdx), %rbx
	movq	%rcx, (%rax)
	movq	%rbx, 8(%rax)
	movq	16(%rdx), %rcx
	movq	24(%rdx), %rbx
	movq	%rcx, 16(%rax)
	movq	%rbx, 24(%rax)
	movq	32(%rdx), %rdx
	movq	%rdx, 32(%rax)
	movq	-48(%rbp), %rax
	movq	%rax, %rdi
	call	ecs_table_count
	movl	%eax, -28(%rbp)
	cmpl	$0, -32(%rbp)
	jne	.L695
	cmpl	$0, -28(%rbp)
	je	.L695
	movq	-48(%rbp), %rsi
	movq	-40(%rbp), %rax
	movl	$1, %ecx
	movl	$0, %edx
	movq	%rax, %rdi
	call	table_activate
	jmp	.L685
.L695:
	cmpl	$0, -32(%rbp)
	je	.L685
	cmpl	$0, -28(%rbp)
	jne	.L685
	movq	-48(%rbp), %rsi
	movq	-40(%rbp), %rax
	movl	$0, %ecx
	movl	$0, %edx
	movq	%rax, %rdi
	call	table_activate
	jmp	.L685
.L696:
	nop
.L685:
	addq	$56, %rsp
	popq	%rbx
	popq	%rbp
	.cfi_def_cfa 7, 8
	ret
	.cfi_endproc
.LFE76:
	.size	flecs_table_replace_data, .-flecs_table_replace_data
	.globl	flecs_table_match_filter
	.type	flecs_table_match_filter, @function
flecs_table_match_filter:
.LFB77:
	.cfi_startproc
	endbr64
	pushq	%rbp
	.cfi_def_cfa_offset 16
	.cfi_offset 6, -16
	movq	%rsp, %rbp
	.cfi_def_cfa_register 6
	subq	$48, %rsp
	movq	%rdi, -24(%rbp)
	movq	%rsi, -32(%rbp)
	movq	%rdx, -40(%rbp)
	cmpq	$0, -24(%rbp)
	setne	%al
	movzbl	%al, %eax
	movl	$0, %r9d
	movl	$4578, %r8d
	leaq	.LC74(%rip), %rcx
	leaq	.LC137(%rip), %rdx
	movl	$7, %esi
	movl	%eax, %edi
	movl	$0, %eax
	call	_ecs_assert
	cmpq	$0, -24(%rbp)
	jne	.L698
	leaq	__PRETTY_FUNCTION__.8815(%rip), %rcx
	movl	$4578, %edx
	leaq	.LC74(%rip), %rsi
	leaq	.LC138(%rip), %rdi
	call	__assert_fail@PLT
.L698:
	cmpq	$0, -32(%rbp)
	setne	%al
	movzbl	%al, %eax
	movl	$0, %r9d
	movl	$4579, %r8d
	leaq	.LC74(%rip), %rcx
	leaq	.LC93(%rip), %rdx
	movl	$7, %esi
	movl	%eax, %edi
	movl	$0, %eax
	call	_ecs_assert
	cmpq	$0, -32(%rbp)
	jne	.L699
	leaq	__PRETTY_FUNCTION__.8815(%rip), %rcx
	movl	$4579, %edx
	leaq	.LC74(%rip), %rsi
	leaq	.LC94(%rip), %rdi
	call	__assert_fail@PLT
.L699:
	cmpq	$0, -40(%rbp)
	jne	.L700
	movl	$1, %eax
	jmp	.L701
.L700:
	movq	-32(%rbp), %rax
	movq	8(%rax), %rax
	movq	%rax, -8(%rbp)
	movq	-40(%rbp), %rax
	movq	1576(%rax), %rax
	testq	%rax, %rax
	je	.L702
	movq	-40(%rbp), %rax
	movl	1592(%rax), %eax
	cmpl	$3, %eax
	jne	.L703
	movq	-40(%rbp), %rax
	movq	1576(%rax), %rax
	cmpq	%rax, -8(%rbp)
	je	.L702
	movl	$0, %eax
	jmp	.L701
.L703:
	movq	-40(%rbp), %rax
	movl	1592(%rax), %eax
	cmpl	$2, %eax
	setne	%al
	movzbl	%al, %ecx
	movq	-40(%rbp), %rax
	movq	1576(%rax), %rdx
	movq	-8(%rbp), %rsi
	movq	-24(%rbp), %rax
	movl	$1, %r8d
	movq	%rax, %rdi
	call	flecs_type_contains
	testq	%rax, %rax
	jne	.L702
	movl	$0, %eax
	jmp	.L701
.L702:
	movq	-40(%rbp), %rax
	movq	1584(%rax), %rax
	testq	%rax, %rax
	je	.L704
	movq	-40(%rbp), %rax
	movl	1596(%rax), %eax
	cmpl	$3, %eax
	jne	.L705
	movq	-40(%rbp), %rax
	movq	1584(%rax), %rax
	cmpq	%rax, -8(%rbp)
	jne	.L704
	movl	$0, %eax
	jmp	.L701
.L705:
	movq	-40(%rbp), %rax
	movl	1596(%rax), %eax
	cmpl	$1, %eax
	sete	%al
	movzbl	%al, %ecx
	movq	-40(%rbp), %rax
	movq	1584(%rax), %rdx
	movq	-8(%rbp), %rsi
	movq	-24(%rbp), %rax
	movl	$1, %r8d
	movq	%rax, %rdi
	call	flecs_type_contains
	testq	%rax, %rax
	je	.L704
	movl	$0, %eax
	jmp	.L701
.L704:
	movl	$1, %eax
.L701:
	leave
	.cfi_def_cfa 7, 8
	ret
	.cfi_endproc
.LFE77:
	.size	flecs_table_match_filter, .-flecs_table_match_filter
	.section	.rodata
.LC174:
	.string	"table->dirty_state != NULL"
	.align 8
.LC175:
	.string	"table->dirty_state != ((void *)0)"
	.text
	.globl	flecs_table_get_dirty_state
	.type	flecs_table_get_dirty_state, @function
flecs_table_get_dirty_state:
.LFB78:
	.cfi_startproc
	endbr64
	pushq	%rbp
	.cfi_def_cfa_offset 16
	.cfi_offset 6, -16
	movq	%rsp, %rbp
	.cfi_def_cfa_register 6
	subq	$16, %rsp
	movq	%rdi, -8(%rbp)
	movq	-8(%rbp), %rax
	movl	132(%rax), %eax
	testl	%eax, %eax
	sete	%al
	movzbl	%al, %eax
	movl	$0, %r9d
	movl	$4623, %r8d
	leaq	.LC74(%rip), %rcx
	leaq	.LC95(%rip), %rdx
	movl	$71, %esi
	movl	%eax, %edi
	movl	$0, %eax
	call	_ecs_assert
	movq	-8(%rbp), %rax
	movl	132(%rax), %eax
	testl	%eax, %eax
	je	.L707
	leaq	__PRETTY_FUNCTION__.8820(%rip), %rcx
	movl	$4623, %edx
	leaq	.LC74(%rip), %rsi
	leaq	.LC95(%rip), %rdi
	call	__assert_fail@PLT
.L707:
	movq	-8(%rbp), %rax
	movq	104(%rax), %rax
	testq	%rax, %rax
	jne	.L708
	movq	32+ecs_os_api(%rip), %rax
	movq	-8(%rbp), %rdx
	movl	20(%rdx), %edx
	addl	$1, %edx
	sall	$2, %edx
	movl	%edx, %edi
	call	*%rax
	movq	-8(%rbp), %rdx
	movq	%rax, 104(%rdx)
	movq	-8(%rbp), %rax
	movq	104(%rax), %rax
	testq	%rax, %rax
	setne	%al
	movzbl	%al, %eax
	movl	$0, %r9d
	movl	$4627, %r8d
	leaq	.LC74(%rip), %rcx
	leaq	.LC174(%rip), %rdx
	movl	$7, %esi
	movl	%eax, %edi
	movl	$0, %eax
	call	_ecs_assert
	movq	-8(%rbp), %rax
	movq	104(%rax), %rax
	testq	%rax, %rax
	jne	.L708
	leaq	__PRETTY_FUNCTION__.8820(%rip), %rcx
	movl	$4627, %edx
	leaq	.LC74(%rip), %rsi
	leaq	.LC175(%rip), %rdi
	call	__assert_fail@PLT
.L708:
	movq	-8(%rbp), %rax
	movq	104(%rax), %rax
	leave
	.cfi_def_cfa 7, 8
	ret
	.cfi_endproc
.LFE78:
	.size	flecs_table_get_dirty_state, .-flecs_table_get_dirty_state
	.section	.rodata
.LC176:
	.string	"dirty_state != NULL"
.LC177:
	.string	"dirty_state != ((void *)0)"
	.text
	.globl	flecs_table_get_monitor
	.type	flecs_table_get_monitor, @function
flecs_table_get_monitor:
.LFB79:
	.cfi_startproc
	endbr64
	pushq	%rbp
	.cfi_def_cfa_offset 16
	.cfi_offset 6, -16
	movq	%rsp, %rbp
	.cfi_def_cfa_register 6
	subq	$32, %rsp
	movq	%rdi, -24(%rbp)
	movq	-24(%rbp), %rax
	movq	%rax, %rdi
	call	flecs_table_get_dirty_state
	movq	%rax, -8(%rbp)
	cmpq	$0, -8(%rbp)
	setne	%al
	movzbl	%al, %eax
	movl	$0, %r9d
	movl	$4636, %r8d
	leaq	.LC74(%rip), %rcx
	leaq	.LC176(%rip), %rdx
	movl	$7, %esi
	movl	%eax, %edi
	movl	$0, %eax
	call	_ecs_assert
	cmpq	$0, -8(%rbp)
	jne	.L711
	leaq	__PRETTY_FUNCTION__.8825(%rip), %rcx
	movl	$4636, %edx
	leaq	.LC74(%rip), %rsi
	leaq	.LC177(%rip), %rdi
	call	__assert_fail@PLT
.L711:
	movq	-24(%rbp), %rax
	movl	20(%rax), %eax
	movl	%eax, -12(%rbp)
	movl	-12(%rbp), %eax
	addl	$1, %eax
	leal	0(,%rax,4), %edx
	movq	-8(%rbp), %rax
	movl	%edx, %esi
	movq	%rax, %rdi
	call	ecs_os_memdup
	leave
	.cfi_def_cfa 7, 8
	ret
	.cfi_endproc
.LFE79:
	.size	flecs_table_get_monitor, .-flecs_table_get_monitor
	.globl	flecs_table_notify
	.type	flecs_table_notify, @function
flecs_table_notify:
.LFB80:
	.cfi_startproc
	endbr64
	pushq	%rbp
	.cfi_def_cfa_offset 16
	.cfi_offset 6, -16
	movq	%rsp, %rbp
	.cfi_def_cfa_register 6
	subq	$32, %rsp
	movq	%rdi, -8(%rbp)
	movq	%rsi, -16(%rbp)
	movq	%rdx, -24(%rbp)
	movq	-8(%rbp), %rax
	movzbl	682(%rax), %eax
	testb	%al, %al
	jne	.L720
	movq	-24(%rbp), %rax
	movl	(%rax), %eax
	cmpl	$3, %eax
	je	.L716
	cmpl	$3, %eax
	ja	.L713
	cmpl	$2, %eax
	je	.L717
	cmpl	$2, %eax
	ja	.L713
	testl	%eax, %eax
	je	.L718
	cmpl	$1, %eax
	je	.L719
	jmp	.L713
.L718:
	movq	-24(%rbp), %rax
	movl	16(%rax), %ecx
	movq	-24(%rbp), %rax
	movq	8(%rax), %rdx
	movq	-16(%rbp), %rsi
	movq	-8(%rbp), %rax
	movq	%rax, %rdi
	call	register_query
	jmp	.L713
.L719:
	movq	-24(%rbp), %rax
	movq	8(%rax), %rdx
	movq	-16(%rbp), %rcx
	movq	-8(%rbp), %rax
	movq	%rcx, %rsi
	movq	%rax, %rdi
	call	unregister_query
	jmp	.L713
.L716:
	movq	-24(%rbp), %rax
	movq	24(%rax), %rdx
	movq	-16(%rbp), %rcx
	movq	-8(%rbp), %rax
	movq	%rcx, %rsi
	movq	%rax, %rdi
	call	notify_component_info
	jmp	.L713
.L717:
	movq	-24(%rbp), %rax
	movq	32(%rax), %rdx
	movq	-16(%rbp), %rcx
	movq	-8(%rbp), %rax
	movq	%rcx, %rsi
	movq	%rax, %rdi
	call	notify_trigger
	jmp	.L713
.L720:
	nop
.L713:
	leave
	.cfi_def_cfa 7, 8
	ret
	.cfi_endproc
.LFE80:
	.size	flecs_table_notify, .-flecs_table_notify
	.globl	ecs_table_lock
	.type	ecs_table_lock, @function
ecs_table_lock:
.LFB81:
	.cfi_startproc
	endbr64
	pushq	%rbp
	.cfi_def_cfa_offset 16
	.cfi_offset 6, -16
	movq	%rsp, %rbp
	.cfi_def_cfa_register 6
	movq	%rdi, -8(%rbp)
	movq	%rsi, -16(%rbp)
	movq	-8(%rbp), %rax
	movl	(%rax), %eax
	cmpl	$1701016439, %eax
	jne	.L723
	movq	-8(%rbp), %rax
	movzbl	681(%rax), %eax
	xorl	$1, %eax
	testb	%al, %al
	je	.L723
	movq	-16(%rbp), %rax
	movl	132(%rax), %eax
	leal	1(%rax), %edx
	movq	-16(%rbp), %rax
	movl	%edx, 132(%rax)
.L723:
	nop
	popq	%rbp
	.cfi_def_cfa 7, 8
	ret
	.cfi_endproc
.LFE81:
	.size	ecs_table_lock, .-ecs_table_lock
	.section	.rodata
.LC178:
	.string	"table->lock >= 0"
	.text
	.globl	ecs_table_unlock
	.type	ecs_table_unlock, @function
ecs_table_unlock:
.LFB82:
	.cfi_startproc
	endbr64
	pushq	%rbp
	.cfi_def_cfa_offset 16
	.cfi_offset 6, -16
	movq	%rsp, %rbp
	.cfi_def_cfa_register 6
	subq	$16, %rsp
	movq	%rdi, -8(%rbp)
	movq	%rsi, -16(%rbp)
	movq	-8(%rbp), %rax
	movl	(%rax), %eax
	cmpl	$1701016439, %eax
	jne	.L726
	movq	-8(%rbp), %rax
	movzbl	681(%rax), %eax
	xorl	$1, %eax
	testb	%al, %al
	je	.L726
	movq	-16(%rbp), %rax
	movl	132(%rax), %eax
	leal	-1(%rax), %edx
	movq	-16(%rbp), %rax
	movl	%edx, 132(%rax)
	movq	-16(%rbp), %rax
	movl	132(%rax), %eax
	notl	%eax
	shrl	$31, %eax
	movzbl	%al, %eax
	movl	$0, %r9d
	movl	$4684, %r8d
	leaq	.LC74(%rip), %rcx
	leaq	.LC178(%rip), %rdx
	movl	$1, %esi
	movl	%eax, %edi
	movl	$0, %eax
	call	_ecs_assert
	movq	-16(%rbp), %rax
	movl	132(%rax), %eax
	testl	%eax, %eax
	jns	.L726
	leaq	__PRETTY_FUNCTION__.8845(%rip), %rcx
	movl	$4684, %edx
	leaq	.LC74(%rip), %rsi
	leaq	.LC178(%rip), %rdi
	call	__assert_fail@PLT
.L726:
	nop
	leave
	.cfi_def_cfa 7, 8
	ret
	.cfi_endproc
.LFE82:
	.size	ecs_table_unlock, .-ecs_table_unlock
	.globl	ecs_table_has_module
	.type	ecs_table_has_module, @function
ecs_table_has_module:
.LFB83:
	.cfi_startproc
	endbr64
	pushq	%rbp
	.cfi_def_cfa_offset 16
	.cfi_offset 6, -16
	movq	%rsp, %rbp
	.cfi_def_cfa_register 6
	movq	%rdi, -8(%rbp)
	movq	-8(%rbp), %rax
	movl	16(%rax), %eax
	andl	$8, %eax
	testl	%eax, %eax
	setne	%al
	popq	%rbp
	.cfi_def_cfa 7, 8
	ret
	.cfi_endproc
.LFE83:
	.size	ecs_table_has_module, .-ecs_table_has_module
	.globl	ecs_table_column_for_id
	.type	ecs_table_column_for_id, @function
ecs_table_column_for_id:
.LFB84:
	.cfi_startproc
	endbr64
	pushq	%rbp
	.cfi_def_cfa_offset 16
	.cfi_offset 6, -16
	movq	%rsp, %rbp
	.cfi_def_cfa_register 6
	subq	$48, %rsp
	movq	%rdi, -24(%rbp)
	movq	%rsi, -32(%rbp)
	movq	%rdx, -40(%rbp)
	movq	-40(%rbp), %rdx
	movq	-32(%rbp), %rcx
	movq	-24(%rbp), %rax
	movq	%rcx, %rsi
	movq	%rax, %rdi
	call	flecs_get_table_record
	movq	%rax, -16(%rbp)
	cmpq	$0, -16(%rbp)
	je	.L730
	movq	-32(%rbp), %rax
	movq	24(%rax), %rax
	movq	%rax, -8(%rbp)
	cmpq	$0, -8(%rbp)
	je	.L730
	movq	-8(%rbp), %rax
	movq	16(%rax), %rdx
	movq	-16(%rbp), %rax
	movl	8(%rax), %eax
	cltq
	salq	$4, %rax
	addq	%rdx, %rax
	jmp	.L731
.L730:
	movl	$0, %eax
.L731:
	leave
	.cfi_def_cfa 7, 8
	ret
	.cfi_endproc
.LFE84:
	.size	ecs_table_column_for_id, .-ecs_table_column_for_id
	.section	.rodata
	.align 8
.LC179:
	.string	"column_index < table->column_count"
.LC180:
	.string	"size != 0"
	.text
	.type	get_component_w_index, @function
get_component_w_index:
.LFB85:
	.cfi_startproc
	endbr64
	pushq	%rbp
	.cfi_def_cfa_offset 16
	.cfi_offset 6, -16
	movq	%rsp, %rbp
	.cfi_def_cfa_register 6
	subq	$48, %rsp
	movq	%rdi, -40(%rbp)
	movl	%esi, -44(%rbp)
	movl	%edx, -48(%rbp)
	movq	-40(%rbp), %rax
	movl	20(%rax), %eax
	cmpl	%eax, -44(%rbp)
	setl	%al
	movzbl	%al, %eax
	movl	$0, %r9d
	movl	$4726, %r8d
	leaq	.LC74(%rip), %rcx
	leaq	.LC179(%rip), %rdx
	movl	$22, %esi
	movl	%eax, %edi
	movl	$0, %eax
	call	_ecs_assert
	movq	-40(%rbp), %rax
	movl	20(%rax), %eax
	cmpl	%eax, -44(%rbp)
	jl	.L733
	leaq	__PRETTY_FUNCTION__.8868(%rip), %rcx
	movl	$4726, %edx
	leaq	.LC74(%rip), %rsi
	leaq	.LC179(%rip), %rdi
	call	__assert_fail@PLT
.L733:
	movq	-40(%rbp), %rax
	movq	%rax, %rdi
	call	flecs_table_get_data
	movq	%rax, -24(%rbp)
	movq	-24(%rbp), %rax
	movq	16(%rax), %rax
	movl	-44(%rbp), %edx
	movslq	%edx, %rdx
	salq	$4, %rdx
	addq	%rdx, %rax
	movq	%rax, -16(%rbp)
	movq	-16(%rbp), %rax
	movzwl	8(%rax), %eax
	cwtl
	movl	%eax, -28(%rbp)
	cmpl	$0, -28(%rbp)
	setne	%al
	movzbl	%al, %eax
	movl	$0, %r9d
	movl	$4734, %r8d
	leaq	.LC74(%rip), %rcx
	leaq	.LC180(%rip), %rdx
	movl	$2, %esi
	movl	%eax, %edi
	movl	$0, %eax
	call	_ecs_assert
	cmpl	$0, -28(%rbp)
	jne	.L734
	leaq	__PRETTY_FUNCTION__.8868(%rip), %rcx
	movl	$4734, %edx
	leaq	.LC74(%rip), %rsi
	leaq	.LC180(%rip), %rdi
	call	__assert_fail@PLT
.L734:
	movq	-16(%rbp), %rax
	movzwl	10(%rax), %eax
	movl	$16, %edx
	cmpw	$16, %ax
	cmovl	%edx, %eax
	movswl	%ax, %edx
	movq	-16(%rbp), %rax
	movq	(%rax), %rax
	movl	-28(%rbp), %ecx
	movl	%ecx, %esi
	movq	%rax, %rdi
	call	_ecs_vector_first
	movq	%rax, -8(%rbp)
	movl	-28(%rbp), %eax
	imull	-48(%rbp), %eax
	movslq	%eax, %rdx
	movq	-8(%rbp), %rax
	addq	%rdx, %rax
	leave
	.cfi_def_cfa 7, 8
	ret
	.cfi_endproc
.LFE85:
	.size	get_component_w_index, .-get_component_w_index
	.type	get_component, @function
get_component:
.LFB86:
	.cfi_startproc
	endbr64
	pushq	%rbp
	.cfi_def_cfa_offset 16
	.cfi_offset 6, -16
	movq	%rsp, %rbp
	.cfi_def_cfa_register 6
	subq	$48, %rsp
	movq	%rdi, -24(%rbp)
	movq	%rsi, -32(%rbp)
	movl	%edx, -36(%rbp)
	movq	%rcx, -48(%rbp)
	movq	-48(%rbp), %rdx
	movq	-24(%rbp), %rax
	movq	%rdx, %rsi
	movq	%rax, %rdi
	call	flecs_get_id_record
	movq	%rax, -16(%rbp)
	cmpq	$0, -16(%rbp)
	jne	.L737
	movl	$0, %eax
	jmp	.L738
.L737:
	movq	-32(%rbp), %rax
	movq	(%rax), %rdx
	movq	-16(%rbp), %rax
	movq	(%rax), %rax
	movl	$16, %esi
	movq	%rax, %rdi
	call	_ecs_map_get
	movq	%rax, -8(%rbp)
	cmpq	$0, -8(%rbp)
	jne	.L739
	movl	$0, %eax
	jmp	.L738
.L739:
	movq	-8(%rbp), %rax
	movl	8(%rax), %ecx
	movl	-36(%rbp), %edx
	movq	-32(%rbp), %rax
	movl	%ecx, %esi
	movq	%rax, %rdi
	call	get_component_w_index
.L738:
	leave
	.cfi_def_cfa 7, 8
	ret
	.cfi_endproc
.LFE86:
	.size	get_component, .-get_component
	.section	.rodata
	.align 8
.LC181:
	.string	"recur_depth < ECS_MAX_RECURSION"
.LC182:
	.string	"recur_depth < (512)"
.LC183:
	.string	"idr != NULL"
.LC184:
	.string	"idr != ((void *)0)"
.LC185:
	.string	"tr_isa != NULL"
.LC186:
	.string	"tr_isa != ((void *)0)"
	.text
	.type	get_base_component, @function
get_base_component:
.LFB87:
	.cfi_startproc
	endbr64
	pushq	%rbp
	.cfi_def_cfa_offset 16
	.cfi_offset 6, -16
	movq	%rsp, %rbp
	.cfi_def_cfa_register 6
	subq	$144, %rsp
	movq	%rdi, -104(%rbp)
	movq	%rsi, -112(%rbp)
	movq	%rdx, -120(%rbp)
	movq	%rcx, -128(%rbp)
	movq	%r8, -136(%rbp)
	movl	%r9d, -140(%rbp)
	movq	%fs:40, %rax
	movq	%rax, -8(%rbp)
	xorl	%eax, %eax
	cmpl	$511, -140(%rbp)
	setle	%al
	movzbl	%al, %eax
	movl	$0, %r9d
	movl	$4771, %r8d
	leaq	.LC74(%rip), %rcx
	leaq	.LC181(%rip), %rdx
	movl	$2, %esi
	movl	%eax, %edi
	movl	$0, %eax
	call	_ecs_assert
	cmpl	$511, -140(%rbp)
	jle	.L741
	leaq	__PRETTY_FUNCTION__.8889(%rip), %rcx
	movl	$4771, %edx
	leaq	.LC74(%rip), %rsi
	leaq	.LC182(%rip), %rdi
	call	__assert_fail@PLT
.L741:
	movq	-112(%rbp), %rax
	movl	16(%rax), %eax
	andl	$4, %eax
	testl	%eax, %eax
	jne	.L742
	movl	$0, %eax
	jmp	.L743
.L742:
	movl	$271, %eax
	movl	%eax, %edx
	movabsq	$17179869184, %rax
	addq	%rax, %rdx
	movabsq	$-432345564227567616, %rax
	orq	%rdx, %rax
	cmpq	%rax, -120(%rbp)
	jne	.L744
	movl	$0, %eax
	jmp	.L743
.L744:
	cmpq	$0, -136(%rbp)
	jne	.L745
	movl	$277, %eax
	salq	$32, %rax
	movl	$266, %edx
	movl	%edx, %edx
	addq	%rax, %rdx
	movabsq	$-432345564227567616, %rax
	orq	%rax, %rdx
	movq	-104(%rbp), %rax
	movq	%rdx, %rsi
	movq	%rax, %rdi
	call	flecs_get_id_record
	movq	%rax, -72(%rbp)
	cmpq	$0, -72(%rbp)
	setne	%al
	movzbl	%al, %eax
	movl	$0, %r9d
	movl	$4787, %r8d
	leaq	.LC74(%rip), %rcx
	leaq	.LC183(%rip), %rdx
	movl	$7, %esi
	movl	%eax, %edi
	movl	$0, %eax
	call	_ecs_assert
	cmpq	$0, -72(%rbp)
	jne	.L746
	leaq	__PRETTY_FUNCTION__.8889(%rip), %rcx
	movl	$4787, %edx
	leaq	.LC74(%rip), %rsi
	leaq	.LC184(%rip), %rdi
	call	__assert_fail@PLT
.L746:
	movq	-72(%rbp), %rax
	movq	(%rax), %rax
	movq	%rax, -136(%rbp)
.L745:
	movq	-112(%rbp), %rax
	movq	(%rax), %rdx
	movq	-136(%rbp), %rax
	movl	$16, %esi
	movq	%rax, %rdi
	call	_ecs_map_get
	movq	%rax, -64(%rbp)
	cmpq	$0, -64(%rbp)
	setne	%al
	movzbl	%al, %eax
	movl	$0, %r9d
	movl	$4795, %r8d
	leaq	.LC74(%rip), %rcx
	leaq	.LC185(%rip), %rdx
	movl	$7, %esi
	movl	%eax, %edi
	movl	$0, %eax
	call	_ecs_assert
	cmpq	$0, -64(%rbp)
	jne	.L747
	leaq	__PRETTY_FUNCTION__.8889(%rip), %rcx
	movl	$4795, %edx
	leaq	.LC74(%rip), %rsi
	leaq	.LC186(%rip), %rdi
	call	__assert_fail@PLT
.L747:
	movq	-112(%rbp), %rax
	movq	8(%rax), %rax
	movq	%rax, -56(%rbp)
	movq	-56(%rbp), %rax
	movl	$16, %edx
	movl	$8, %esi
	movq	%rax, %rdi
	call	_ecs_vector_first
	movq	%rax, -48(%rbp)
	movq	-64(%rbp), %rax
	movl	8(%rax), %eax
	movl	%eax, -92(%rbp)
	movq	-64(%rbp), %rax
	movl	12(%rax), %edx
	movq	-64(%rbp), %rax
	movl	8(%rax), %eax
	addl	%edx, %eax
	movl	%eax, -88(%rbp)
	movq	$0, -80(%rbp)
.L753:
	movl	-92(%rbp), %eax
	leal	1(%rax), %edx
	movl	%edx, -92(%rbp)
	cltq
	leaq	0(,%rax,8), %rdx
	movq	-48(%rbp), %rax
	addq	%rdx, %rax
	movq	(%rax), %rax
	movq	%rax, -40(%rbp)
	movq	-40(%rbp), %rax
	movl	%eax, %edx
	movq	-104(%rbp), %rax
	movq	%rdx, %rsi
	movq	%rax, %rdi
	call	ecs_get_alive
	movq	%rax, -32(%rbp)
	movq	-104(%rbp), %rax
	movq	40(%rax), %rax
	movq	-32(%rbp), %rdx
	movl	$16, %esi
	movq	%rax, %rdi
	call	_flecs_sparse_get
	movq	%rax, -24(%rbp)
	cmpq	$0, -24(%rbp)
	je	.L755
	movq	-24(%rbp), %rax
	movq	(%rax), %rax
	movq	%rax, -112(%rbp)
	cmpq	$0, -112(%rbp)
	je	.L756
	movq	-112(%rbp), %rax
	movq	(%rax), %rdx
	movq	-128(%rbp), %rax
	movl	$16, %esi
	movq	%rax, %rdi
	call	_ecs_map_get
	movq	%rax, -16(%rbp)
	cmpq	$0, -16(%rbp)
	jne	.L751
	movl	-140(%rbp), %eax
	leal	1(%rax), %r8d
	movq	-136(%rbp), %rdi
	movq	-128(%rbp), %rcx
	movq	-120(%rbp), %rdx
	movq	-112(%rbp), %rsi
	movq	-104(%rbp), %rax
	movl	%r8d, %r9d
	movq	%rdi, %r8
	movq	%rax, %rdi
	call	get_base_component
	movq	%rax, -80(%rbp)
	jmp	.L749
.L751:
	movq	-24(%rbp), %rax
	movl	8(%rax), %eax
	leaq	-93(%rbp), %rdx
	movq	%rdx, %rsi
	movl	%eax, %edi
	call	flecs_record_to_row
	movl	%eax, -84(%rbp)
	movq	-16(%rbp), %rax
	movl	8(%rax), %ecx
	movl	-84(%rbp), %edx
	movq	-112(%rbp), %rax
	movl	%ecx, %esi
	movq	%rax, %rdi
	call	get_component_w_index
	movq	%rax, -80(%rbp)
	jmp	.L749
.L755:
	nop
	jmp	.L749
.L756:
	nop
.L749:
	cmpq	$0, -80(%rbp)
	jne	.L752
	movl	-92(%rbp), %eax
	cmpl	-88(%rbp), %eax
	jl	.L753
.L752:
	movq	-80(%rbp), %rax
.L743:
	movq	-8(%rbp), %rcx
	xorq	%fs:40, %rcx
	je	.L754
	call	__stack_chk_fail@PLT
.L754:
	leave
	.cfi_def_cfa 7, 8
	ret
	.cfi_endproc
.LFE87:
	.size	get_base_component, .-get_base_component
	.type	set_row_info, @function
set_row_info:
.LFB88:
	.cfi_startproc
	endbr64
	pushq	%rbp
	.cfi_def_cfa_offset 16
	.cfi_offset 6, -16
	movq	%rsp, %rbp
	.cfi_def_cfa_register 6
	subq	$16, %rsp
	movq	%rdi, -8(%rbp)
	movl	%esi, -12(%rbp)
	movq	-8(%rbp), %rax
	leaq	28(%rax), %rdx
	movl	-12(%rbp), %eax
	movq	%rdx, %rsi
	movl	%eax, %edi
	call	flecs_record_to_row
	movq	-8(%rbp), %rdx
	movl	%eax, 24(%rdx)
	movq	-8(%rbp), %rax
	movl	24(%rax), %eax
	leave
	.cfi_def_cfa 7, 8
	ret
	.cfi_endproc
.LFE88:
	.size	set_row_info, .-set_row_info
	.section	.rodata
	.align 8
.LC187:
	.string	"ecs_vector_count(data->entities) > info->row"
	.text
	.type	set_info_from_record, @function
set_info_from_record:
.LFB89:
	.cfi_startproc
	endbr64
	pushq	%rbp
	.cfi_def_cfa_offset 16
	.cfi_offset 6, -16
	movq	%rsp, %rbp
	.cfi_def_cfa_register 6
	subq	$32, %rsp
	movq	%rdi, -24(%rbp)
	movq	%rsi, -32(%rbp)
	cmpq	$0, -32(%rbp)
	setne	%al
	movzbl	%al, %eax
	movl	$0, %r9d
	movl	$4846, %r8d
	leaq	.LC74(%rip), %rcx
	leaq	.LC171(%rip), %rdx
	movl	$7, %esi
	movl	%eax, %edi
	movl	$0, %eax
	call	_ecs_assert
	cmpq	$0, -32(%rbp)
	jne	.L760
	leaq	__PRETTY_FUNCTION__.8914(%rip), %rcx
	movl	$4846, %edx
	leaq	.LC74(%rip), %rsi
	leaq	.LC172(%rip), %rdi
	call	__assert_fail@PLT
.L760:
	movq	-24(%rbp), %rax
	movq	-32(%rbp), %rdx
	movq	%rdx, (%rax)
	movq	-32(%rbp), %rax
	movq	(%rax), %rax
	movq	%rax, -16(%rbp)
	movq	-32(%rbp), %rax
	movl	8(%rax), %edx
	movq	-24(%rbp), %rax
	movl	%edx, %esi
	movq	%rax, %rdi
	call	set_row_info
	movq	-24(%rbp), %rax
	movq	-16(%rbp), %rdx
	movq	%rdx, 8(%rax)
	movq	-24(%rbp), %rax
	movq	8(%rax), %rax
	testq	%rax, %rax
	je	.L764
	movq	-16(%rbp), %rax
	movq	%rax, %rdi
	call	flecs_table_get_data
	movq	%rax, -8(%rbp)
	cmpq	$0, -8(%rbp)
	setne	%al
	movzbl	%al, %eax
	movl	$0, %r9d
	movl	$4860, %r8d
	leaq	.LC74(%rip), %rcx
	leaq	.LC122(%rip), %rdx
	movl	$7, %esi
	movl	%eax, %edi
	movl	$0, %eax
	call	_ecs_assert
	cmpq	$0, -8(%rbp)
	jne	.L763
	leaq	__PRETTY_FUNCTION__.8914(%rip), %rcx
	movl	$4860, %edx
	leaq	.LC74(%rip), %rsi
	leaq	.LC123(%rip), %rdi
	call	__assert_fail@PLT
.L763:
	movq	-24(%rbp), %rax
	movq	-8(%rbp), %rdx
	movq	%rdx, 16(%rax)
	movq	-8(%rbp), %rax
	movq	(%rax), %rax
	movq	%rax, %rdi
	call	ecs_vector_count
	movq	-24(%rbp), %rdx
	movl	24(%rdx), %edx
	cmpl	%edx, %eax
	setg	%al
	movzbl	%al, %eax
	movl	$0, %r9d
	movl	$4864, %r8d
	leaq	.LC74(%rip), %rcx
	leaq	.LC187(%rip), %rdx
	movl	$7, %esi
	movl	%eax, %edi
	movl	$0, %eax
	call	_ecs_assert
	movq	-8(%rbp), %rax
	movq	(%rax), %rax
	movq	%rax, %rdi
	call	ecs_vector_count
	movq	-24(%rbp), %rdx
	movl	24(%rdx), %edx
	cmpl	%edx, %eax
	jg	.L759
	leaq	__PRETTY_FUNCTION__.8914(%rip), %rcx
	movl	$4864, %edx
	leaq	.LC74(%rip), %rsi
	leaq	.LC187(%rip), %rdi
	call	__assert_fail@PLT
.L764:
	nop
.L759:
	leave
	.cfi_def_cfa 7, 8
	ret
	.cfi_endproc
.LFE89:
	.size	set_info_from_record, .-set_info_from_record
	.type	get_c_info, @function
get_c_info:
.LFB90:
	.cfi_startproc
	endbr64
	pushq	%rbp
	.cfi_def_cfa_offset 16
	.cfi_offset 6, -16
	movq	%rsp, %rbp
	.cfi_def_cfa_register 6
	subq	$32, %rsp
	movq	%rdi, -24(%rbp)
	movq	%rsi, -32(%rbp)
	movq	-32(%rbp), %rdx
	movq	-24(%rbp), %rax
	movq	%rdx, %rsi
	movq	%rax, %rdi
	call	ecs_get_typeid
	movq	%rax, -8(%rbp)
	cmpq	$0, -8(%rbp)
	je	.L766
	movq	-8(%rbp), %rdx
	movq	-24(%rbp), %rax
	movq	%rdx, %rsi
	movq	%rax, %rdi
	call	flecs_get_c_info
	jmp	.L767
.L766:
	movl	$0, %eax
.L767:
	leave
	.cfi_def_cfa 7, 8
	ret
	.cfi_endproc
.LFE90:
	.size	get_c_info, .-get_c_info
	.type	get_column_info, @function
get_column_info:
.LFB91:
	.cfi_startproc
	endbr64
	pushq	%rbp
	.cfi_def_cfa_offset 16
	.cfi_offset 6, -16
	movq	%rsp, %rbp
	.cfi_def_cfa_register 6
	pushq	%rbx
	subq	$120, %rsp
	.cfi_offset 3, -24
	movq	%rdi, -88(%rbp)
	movq	%rsi, -96(%rbp)
	movq	%rdx, -104(%rbp)
	movq	%rcx, -112(%rbp)
	movl	%r8d, %eax
	movb	%al, -116(%rbp)
	movq	-96(%rbp), %rax
	movl	20(%rax), %eax
	movl	%eax, -60(%rbp)
	movq	-96(%rbp), %rax
	movq	8(%rax), %rax
	movl	$16, %edx
	movl	$8, %esi
	movq	%rax, %rdi
	call	_ecs_vector_first
	movq	%rax, -48(%rbp)
	cmpb	$0, -116(%rbp)
	je	.L769
	movq	-96(%rbp), %rax
	movq	8(%rax), %rax
	movq	%rax, %rdi
	call	ecs_vector_count
	movl	%eax, -52(%rbp)
	movl	$0, -72(%rbp)
	jmp	.L770
.L771:
	movl	-72(%rbp), %eax
	cltq
	leaq	0(,%rax,8), %rdx
	movq	-48(%rbp), %rax
	addq	%rdx, %rax
	movq	(%rax), %rax
	movq	%rax, -24(%rbp)
	movl	-72(%rbp), %eax
	movslq	%eax, %rdx
	movq	%rdx, %rax
	addq	%rax, %rax
	addq	%rdx, %rax
	salq	$3, %rax
	movq	%rax, %rdx
	movq	-112(%rbp), %rax
	addq	%rax, %rdx
	movq	-24(%rbp), %rax
	movq	%rax, (%rdx)
	movl	-72(%rbp), %eax
	movslq	%eax, %rdx
	movq	%rdx, %rax
	addq	%rax, %rax
	addq	%rdx, %rax
	salq	$3, %rax
	movq	%rax, %rdx
	movq	-112(%rbp), %rax
	leaq	(%rdx,%rax), %rbx
	movq	-24(%rbp), %rdx
	movq	-88(%rbp), %rax
	movq	%rdx, %rsi
	movq	%rax, %rdi
	call	get_c_info
	movq	%rax, 8(%rbx)
	movl	-72(%rbp), %eax
	movslq	%eax, %rdx
	movq	%rdx, %rax
	addq	%rax, %rax
	addq	%rdx, %rax
	salq	$3, %rax
	movq	%rax, %rdx
	movq	-112(%rbp), %rax
	addq	%rax, %rdx
	movl	-72(%rbp), %eax
	movl	%eax, 16(%rdx)
	addl	$1, -72(%rbp)
.L770:
	movl	-72(%rbp), %eax
	cmpl	-52(%rbp), %eax
	jl	.L771
	movl	-52(%rbp), %eax
	jmp	.L772
.L769:
	movq	-104(%rbp), %rax
	movq	(%rax), %rax
	movq	%rax, -40(%rbp)
	movq	-104(%rbp), %rax
	movl	8(%rax), %eax
	movl	%eax, -56(%rbp)
	movl	$0, -68(%rbp)
	jmp	.L773
.L778:
	movl	-68(%rbp), %eax
	cltq
	leaq	0(,%rax,8), %rdx
	movq	-40(%rbp), %rax
	addq	%rdx, %rax
	movq	(%rax), %rax
	movq	%rax, -32(%rbp)
	movl	-68(%rbp), %eax
	movslq	%eax, %rdx
	movq	%rdx, %rax
	addq	%rax, %rax
	addq	%rdx, %rax
	salq	$3, %rax
	movq	%rax, %rdx
	movq	-112(%rbp), %rax
	addq	%rax, %rdx
	movq	-32(%rbp), %rax
	movq	%rax, (%rdx)
	movl	-68(%rbp), %eax
	movslq	%eax, %rdx
	movq	%rdx, %rax
	addq	%rax, %rax
	addq	%rdx, %rax
	salq	$3, %rax
	movq	%rax, %rdx
	movq	-112(%rbp), %rax
	leaq	(%rdx,%rax), %rbx
	movq	-32(%rbp), %rdx
	movq	-88(%rbp), %rax
	movq	%rdx, %rsi
	movq	%rax, %rdi
	call	get_c_info
	movq	%rax, 8(%rbx)
	movl	-68(%rbp), %eax
	movslq	%eax, %rdx
	movq	%rdx, %rax
	addq	%rax, %rax
	addq	%rdx, %rax
	salq	$3, %rax
	movq	%rax, %rdx
	movq	-112(%rbp), %rax
	addq	%rdx, %rax
	movl	$-1, 16(%rax)
	movl	$0, -64(%rbp)
	jmp	.L774
.L777:
	movl	-64(%rbp), %eax
	cltq
	leaq	0(,%rax,8), %rdx
	movq	-48(%rbp), %rax
	addq	%rdx, %rax
	movq	(%rax), %rax
	cmpq	%rax, -32(%rbp)
	jne	.L775
	movl	-68(%rbp), %eax
	movslq	%eax, %rdx
	movq	%rdx, %rax
	addq	%rax, %rax
	addq	%rdx, %rax
	salq	$3, %rax
	movq	%rax, %rdx
	movq	-112(%rbp), %rax
	addq	%rax, %rdx
	movl	-64(%rbp), %eax
	movl	%eax, 16(%rdx)
	jmp	.L776
.L775:
	addl	$1, -64(%rbp)
.L774:
	movl	-64(%rbp), %eax
	cmpl	-60(%rbp), %eax
	jl	.L777
.L776:
	addl	$1, -68(%rbp)
.L773:
	movl	-68(%rbp), %eax
	cmpl	-56(%rbp), %eax
	jl	.L778
	movl	-56(%rbp), %eax
.L772:
	addq	$120, %rsp
	popq	%rbx
	popq	%rbp
	.cfi_def_cfa 7, 8
	ret
	.cfi_endproc
.LFE91:
	.size	get_column_info, .-get_column_info
	.type	run_set_systems_for_entities, @function
run_set_systems_for_entities:
.LFB92:
	.cfi_startproc
	endbr64
	pushq	%rbp
	.cfi_def_cfa_offset 16
	.cfi_offset 6, -16
	movq	%rsp, %rbp
	.cfi_def_cfa_register 6
	addq	$-128, %rsp
	movq	%rdi, -88(%rbp)
	movq	%rsi, -96(%rbp)
	movq	%rdx, -104(%rbp)
	movl	%ecx, -108(%rbp)
	movl	%r8d, -112(%rbp)
	movq	%r9, -120(%rbp)
	movl	16(%rbp), %eax
	movb	%al, -124(%rbp)
	cmpb	$0, -124(%rbp)
	je	.L780
	movq	-104(%rbp), %rax
	movq	80(%rax), %rax
	movq	%rax, -24(%rbp)
	movq	-24(%rbp), %rax
	movq	%rax, %rdi
	call	ecs_vector_count
	movl	%eax, -60(%rbp)
	movq	-24(%rbp), %rax
	movl	$16, %edx
	movl	$16, %esi
	movq	%rax, %rdi
	call	_ecs_vector_first
	movq	%rax, -16(%rbp)
	movl	$0, -76(%rbp)
	jmp	.L781
.L782:
	movl	-76(%rbp), %eax
	cltq
	salq	$4, %rax
	movq	%rax, %rdx
	movq	-16(%rbp), %rax
	addq	%rdx, %rax
	movq	%rax, -8(%rbp)
	movq	-120(%rbp), %r8
	movl	-112(%rbp), %edi
	movl	-108(%rbp), %ecx
	movq	-96(%rbp), %rdx
	movq	-8(%rbp), %rsi
	movq	-88(%rbp), %rax
	movq	%r8, %r9
	movl	%edi, %r8d
	movq	%rax, %rdi
	call	flecs_run_monitor
	addl	$1, -76(%rbp)
.L781:
	movl	-76(%rbp), %eax
	cmpl	-60(%rbp), %eax
	jl	.L782
	jmp	.L787
.L780:
	movq	-104(%rbp), %rax
	movq	72(%rax), %rax
	movq	%rax, -56(%rbp)
	cmpq	$0, -56(%rbp)
	je	.L787
	movq	-96(%rbp), %rax
	movq	(%rax), %rax
	movq	(%rax), %rdx
	movq	-104(%rbp), %rax
	movq	8(%rax), %rax
	movl	$0, %esi
	movq	%rax, %rdi
	call	ecs_type_index_of
	movl	%eax, -68(%rbp)
	cmpl	$-1, -68(%rbp)
	setne	%al
	movzbl	%al, %eax
	movl	$0, %r9d
	movl	$4961, %r8d
	leaq	.LC74(%rip), %rcx
	leaq	.LC110(%rip), %rdx
	movl	$7, %esi
	movl	%eax, %edi
	movl	$0, %eax
	call	_ecs_assert
	cmpl	$-1, -68(%rbp)
	jne	.L784
	leaq	__PRETTY_FUNCTION__.8967(%rip), %rcx
	movl	$4961, %edx
	leaq	.LC74(%rip), %rsi
	leaq	.LC110(%rip), %rdi
	call	__assert_fail@PLT
.L784:
	movl	-68(%rbp), %eax
	cltq
	leaq	0(,%rax,8), %rdx
	movq	-56(%rbp), %rax
	addq	%rdx, %rax
	movq	(%rax), %rax
	movq	%rax, -48(%rbp)
	movq	-48(%rbp), %rax
	movq	%rax, %rdi
	call	ecs_vector_count
	movl	%eax, -64(%rbp)
	movq	-48(%rbp), %rax
	movl	$16, %edx
	movl	$16, %esi
	movq	%rax, %rdi
	call	_ecs_vector_first
	movq	%rax, -40(%rbp)
	movl	$0, -72(%rbp)
	jmp	.L785
.L786:
	movl	-72(%rbp), %eax
	cltq
	salq	$4, %rax
	movq	%rax, %rdx
	movq	-40(%rbp), %rax
	addq	%rdx, %rax
	movq	%rax, -32(%rbp)
	movq	-120(%rbp), %r8
	movl	-112(%rbp), %edi
	movl	-108(%rbp), %ecx
	movq	-96(%rbp), %rdx
	movq	-32(%rbp), %rsi
	movq	-88(%rbp), %rax
	movq	%r8, %r9
	movl	%edi, %r8d
	movq	%rax, %rdi
	call	flecs_run_monitor
	addl	$1, -72(%rbp)
.L785:
	movl	-72(%rbp), %eax
	cmpl	-64(%rbp), %eax
	jl	.L786
.L787:
	nop
	leave
	.cfi_def_cfa 7, 8
	ret
	.cfi_endproc
.LFE92:
	.size	run_set_systems_for_entities, .-run_set_systems_for_entities
	.section	.rodata
.LC188:
	.string	"count != 0"
	.text
	.type	notify, @function
notify:
.LFB93:
	.cfi_startproc
	endbr64
	pushq	%rbp
	.cfi_def_cfa_offset 16
	.cfi_offset 6, -16
	movq	%rsp, %rbp
	.cfi_def_cfa_register 6
	subq	$64, %rsp
	movq	%rdi, -24(%rbp)
	movq	%rsi, -32(%rbp)
	movq	%rdx, -40(%rbp)
	movl	%ecx, -44(%rbp)
	movl	%r8d, -48(%rbp)
	movq	%r9, -56(%rbp)
	cmpq	$0, -40(%rbp)
	setne	%al
	movzbl	%al, %eax
	movl	$0, %r9d
	movl	$4982, %r8d
	leaq	.LC74(%rip), %rcx
	leaq	.LC122(%rip), %rdx
	movl	$7, %esi
	movl	%eax, %edi
	movl	$0, %eax
	call	_ecs_assert
	cmpq	$0, -40(%rbp)
	jne	.L789
	leaq	__PRETTY_FUNCTION__.8985(%rip), %rcx
	movl	$4982, %edx
	leaq	.LC74(%rip), %rsi
	leaq	.LC123(%rip), %rdi
	call	__assert_fail@PLT
.L789:
	cmpl	$0, -48(%rbp)
	setne	%al
	movzbl	%al, %eax
	movl	$0, %r9d
	movl	$4983, %r8d
	leaq	.LC74(%rip), %rcx
	leaq	.LC188(%rip), %rdx
	movl	$7, %esi
	movl	%eax, %edi
	movl	$0, %eax
	call	_ecs_assert
	cmpl	$0, -48(%rbp)
	jne	.L790
	leaq	__PRETTY_FUNCTION__.8985(%rip), %rcx
	movl	$4983, %edx
	leaq	.LC74(%rip), %rsi
	leaq	.LC188(%rip), %rdi
	call	__assert_fail@PLT
.L790:
	movq	16(%rbp), %rax
	movq	(%rax), %rax
	movq	%rax, -8(%rbp)
	movq	16(%rbp), %rax
	movl	8(%rax), %eax
	movl	%eax, -12(%rbp)
	movl	$0, -16(%rbp)
	jmp	.L791
.L792:
	movl	-16(%rbp), %eax
	cltq
	leaq	0(,%rax,8), %rdx
	movq	-8(%rbp), %rax
	addq	%rdx, %rax
	movq	(%rax), %rsi
	movl	-44(%rbp), %r9d
	movq	-40(%rbp), %r8
	movq	-32(%rbp), %rcx
	movq	-56(%rbp), %rdx
	movq	-24(%rbp), %rax
	subq	$8, %rsp
	movl	-48(%rbp), %edi
	pushq	%rdi
	movq	%rax, %rdi
	call	flecs_triggers_notify
	addq	$16, %rsp
	addl	$1, -16(%rbp)
.L791:
	movl	-16(%rbp), %eax
	cmpl	-12(%rbp), %eax
	jl	.L792
	nop
	nop
	leave
	.cfi_def_cfa 7, 8
	ret
	.cfi_endproc
.LFE93:
	.size	notify, .-notify
	.section	.rodata
.LC189:
	.string	"base_index != -1"
.LC190:
	.string	"i_table != NULL"
.LC191:
	.string	"i_table != ((void *)0)"
.LC192:
	.string	"child != instance"
	.text
	.type	instantiate_children, @function
instantiate_children:
.LFB94:
	.cfi_startproc
	endbr64
	pushq	%rbp
	.cfi_def_cfa_offset 16
	.cfi_offset 6, -16
	movq	%rsp, %rbp
	.cfi_def_cfa_register 6
	pushq	%rbx
	subq	$232, %rsp
	.cfi_offset 3, -24
	movq	%rdi, -200(%rbp)
	movq	%rsi, -208(%rbp)
	movq	%rdx, -216(%rbp)
	movq	%rcx, -224(%rbp)
	movl	%r8d, -228(%rbp)
	movl	%r9d, -232(%rbp)
	movq	16(%rbp), %rax
	movq	%rax, -240(%rbp)
	movq	%fs:40, %rax
	movq	%rax, -24(%rbp)
	xorl	%eax, %eax
	movq	-240(%rbp), %rax
	movq	8(%rax), %rax
	movq	%rax, -152(%rbp)
	movq	-240(%rbp), %rax
	movq	%rax, %rdi
	call	flecs_table_get_data
	movq	%rax, -144(%rbp)
	cmpq	$0, -144(%rbp)
	je	.L821
	movq	-144(%rbp), %rax
	movq	%rax, %rdi
	call	flecs_table_data_count
	testl	%eax, %eax
	je	.L821
	movq	-240(%rbp), %rax
	movl	20(%rax), %eax
	movl	%eax, -164(%rbp)
	movq	-152(%rbp), %rax
	movl	$16, %edx
	movl	$8, %esi
	movq	%rax, %rdi
	call	_ecs_vector_first
	movq	%rax, -136(%rbp)
	movq	-152(%rbp), %rax
	movq	%rax, %rdi
	call	ecs_vector_count
	movl	%eax, -160(%rbp)
	movq	$0, -48(%rbp)
	movq	$0, -40(%rbp)
	movl	-160(%rbp), %eax
	addl	$1, %eax
	sall	$3, %eax
	cltq
	leaq	8(%rax), %rdx
	movl	$16, %eax
	subq	$1, %rax
	addq	%rdx, %rax
	movl	$16, %ebx
	movl	$0, %edx
	divq	%rbx
	imulq	$16, %rax, %rax
	movq	%rax, %rdx
	andq	$-4096, %rdx
	movq	%rsp, %rbx
	subq	%rdx, %rbx
	movq	%rbx, %rdx
.L797:
	cmpq	%rdx, %rsp
	je	.L798
	subq	$4096, %rsp
	orq	$0, 4088(%rsp)
	jmp	.L797
.L798:
	movq	%rax, %rdx
	andl	$4095, %edx
	subq	%rdx, %rsp
	movq	%rax, %rdx
	andl	$4095, %edx
	testq	%rdx, %rdx
	je	.L799
	andl	$4095, %eax
	subq	$8, %rax
	addq	%rsp, %rax
	orq	$0, (%rax)
.L799:
	movq	%rsp, %rax
	addq	$15, %rax
	shrq	$4, %rax
	salq	$4, %rax
	movq	%rax, -48(%rbp)
	movl	-164(%rbp), %eax
	sall	$3, %eax
	cltq
	leaq	8(%rax), %rdx
	movl	$16, %eax
	subq	$1, %rax
	addq	%rdx, %rax
	movl	$16, %ebx
	movl	$0, %edx
	divq	%rbx
	imulq	$16, %rax, %rax
	movq	%rax, %rdx
	andq	$-4096, %rdx
	movq	%rsp, %rbx
	subq	%rdx, %rbx
	movq	%rbx, %rdx
.L800:
	cmpq	%rdx, %rsp
	je	.L801
	subq	$4096, %rsp
	orq	$0, 4088(%rsp)
	jmp	.L800
.L801:
	movq	%rax, %rdx
	andl	$4095, %edx
	subq	%rdx, %rsp
	movq	%rax, %rdx
	andl	$4095, %edx
	testq	%rdx, %rdx
	je	.L802
	andl	$4095, %eax
	subq	$8, %rax
	addq	%rsp, %rax
	orq	$0, (%rax)
.L802:
	movq	%rsp, %rax
	addq	$15, %rax
	shrq	$4, %rax
	salq	$4, %rax
	movq	%rax, -128(%rbp)
	movl	$-1, -176(%rbp)
	movl	$0, -172(%rbp)
	movl	$0, -180(%rbp)
	jmp	.L803
.L809:
	movl	-180(%rbp), %eax
	cltq
	leaq	0(,%rax,8), %rdx
	movq	-136(%rbp), %rax
	addq	%rdx, %rax
	movq	(%rax), %rax
	movq	%rax, -64(%rbp)
	movl	$260, %eax
	cmpq	%rax, -64(%rbp)
	je	.L822
	movabsq	$-72057594037927936, %rax
	andq	-64(%rbp), %rax
	movabsq	$-432345564227567616, %rdx
	cmpq	%rdx, %rax
	jne	.L806
	movq	-64(%rbp), %rax
	shrq	$32, %rax
	movl	%eax, %eax
	andl	$16777215, %eax
	movl	$276, %edx
	cmpq	%rdx, %rax
	jne	.L806
	movq	-64(%rbp), %rax
	movl	%eax, %eax
	cmpq	%rax, -208(%rbp)
	jne	.L806
	movl	-172(%rbp), %eax
	movl	%eax, -176(%rbp)
.L806:
	movl	-180(%rbp), %eax
	cmpl	-164(%rbp), %eax
	jge	.L807
	movq	-144(%rbp), %rax
	movq	16(%rax), %rax
	movl	-180(%rbp), %edx
	movslq	%edx, %rdx
	salq	$4, %rdx
	addq	%rdx, %rax
	movq	%rax, -56(%rbp)
	movq	-56(%rbp), %rax
	movzwl	10(%rax), %eax
	movl	$16, %edx
	cmpw	$16, %ax
	cmovl	%edx, %eax
	movswl	%ax, %edx
	movq	-56(%rbp), %rax
	movzwl	8(%rax), %eax
	movswl	%ax, %ecx
	movq	-56(%rbp), %rax
	movq	(%rax), %rax
	movl	-172(%rbp), %esi
	movslq	%esi, %rsi
	leaq	0(,%rsi,8), %rdi
	movq	-128(%rbp), %rsi
	leaq	(%rdi,%rsi), %rbx
	movl	%ecx, %esi
	movq	%rax, %rdi
	call	_ecs_vector_first
	movq	%rax, (%rbx)
	jmp	.L808
.L807:
	movl	-172(%rbp), %eax
	cmpl	-164(%rbp), %eax
	jge	.L808
	movl	-172(%rbp), %eax
	cltq
	leaq	0(,%rax,8), %rdx
	movq	-128(%rbp), %rax
	addq	%rdx, %rax
	movq	$0, (%rax)
.L808:
	movq	-48(%rbp), %rax
	movl	-172(%rbp), %edx
	movslq	%edx, %rdx
	salq	$3, %rdx
	addq	%rax, %rdx
	movq	-64(%rbp), %rax
	movq	%rax, (%rdx)
	addl	$1, -172(%rbp)
	jmp	.L805
.L822:
	nop
.L805:
	addl	$1, -180(%rbp)
.L803:
	movl	-180(%rbp), %eax
	cmpl	-160(%rbp), %eax
	jl	.L809
	cmpl	$-1, -176(%rbp)
	setne	%al
	movzbl	%al, %eax
	movl	$0, %r9d
	movl	$5065, %r8d
	leaq	.LC74(%rip), %rcx
	leaq	.LC189(%rip), %rdx
	movl	$7, %esi
	movl	%eax, %edi
	movl	$0, %eax
	call	_ecs_assert
	cmpl	$-1, -176(%rbp)
	jne	.L810
	leaq	__PRETTY_FUNCTION__.9024(%rip), %rcx
	movl	$5065, %edx
	leaq	.LC74(%rip), %rsi
	leaq	.LC189(%rip), %rdi
	call	__assert_fail@PLT
.L810:
	movq	-216(%rbp), %rax
	movl	16(%rax), %eax
	andl	$2, %eax
	testl	%eax, %eax
	je	.L811
	movq	-48(%rbp), %rax
	movl	-172(%rbp), %edx
	movslq	%edx, %rdx
	salq	$3, %rdx
	addq	%rdx, %rax
	movl	$260, %edx
	movq	%rdx, (%rax)
	addl	$1, -172(%rbp)
.L811:
	movl	-172(%rbp), %eax
	movl	%eax, -40(%rbp)
	movq	-224(%rbp), %rax
	movq	(%rax), %rax
	movl	$16, %edx
	movl	$8, %esi
	movq	%rax, %rdi
	call	_ecs_vector_first
	movq	%rax, -120(%rbp)
	movq	-144(%rbp), %rax
	movq	(%rax), %rax
	movq	%rax, %rdi
	call	ecs_vector_count
	movl	%eax, -156(%rbp)
	movl	-228(%rbp), %eax
	movl	%eax, -180(%rbp)
	jmp	.L812
.L819:
	movl	-180(%rbp), %eax
	cltq
	leaq	0(,%rax,8), %rdx
	movq	-120(%rbp), %rax
	addq	%rdx, %rax
	movq	(%rax), %rax
	movq	%rax, -112(%rbp)
	movl	$276, %eax
	salq	$32, %rax
	movq	%rax, %rdx
	movq	-112(%rbp), %rax
	movl	%eax, %eax
	leaq	(%rdx,%rax), %rsi
	movabsq	$-432345564227567616, %rcx
	movq	-48(%rbp), %rax
	movl	-176(%rbp), %edx
	movslq	%edx, %rdx
	salq	$3, %rdx
	addq	%rdx, %rax
	orq	%rcx, %rsi
	movq	%rsi, %rdx
	movq	%rdx, (%rax)
	leaq	-48(%rbp), %rdx
	movq	-200(%rbp), %rax
	movq	%rdx, %rsi
	movq	%rax, %rdi
	call	flecs_table_find_or_create
	movq	%rax, -104(%rbp)
	cmpq	$0, -104(%rbp)
	setne	%al
	movzbl	%al, %eax
	movl	$0, %r9d
	movl	$5087, %r8d
	leaq	.LC74(%rip), %rcx
	leaq	.LC190(%rip), %rdx
	movl	$7, %esi
	movl	%eax, %edi
	movl	$0, %eax
	call	_ecs_assert
	cmpq	$0, -104(%rbp)
	jne	.L813
	leaq	__PRETTY_FUNCTION__.9024(%rip), %rcx
	movl	$5087, %edx
	leaq	.LC74(%rip), %rsi
	leaq	.LC191(%rip), %rdi
	call	__assert_fail@PLT
.L813:
	movq	-144(%rbp), %rax
	movq	(%rax), %rax
	movl	$16, %edx
	movl	$8, %esi
	movq	%rax, %rdi
	call	_ecs_vector_first
	movq	%rax, -96(%rbp)
	movl	$0, -168(%rbp)
	jmp	.L814
.L816:
	movl	-168(%rbp), %eax
	cltq
	leaq	0(,%rax,8), %rdx
	movq	-96(%rbp), %rax
	addq	%rdx, %rax
	movq	(%rax), %rax
	movq	%rax, -72(%rbp)
	movq	-72(%rbp), %rax
	cmpq	-112(%rbp), %rax
	setne	%al
	movzbl	%al, %eax
	movl	$0, %r9d
	movl	$5098, %r8d
	leaq	.LC74(%rip), %rcx
	leaq	.LC192(%rip), %rdx
	movl	$2, %esi
	movl	%eax, %edi
	movl	$0, %eax
	call	_ecs_assert
	movq	-72(%rbp), %rax
	cmpq	-112(%rbp), %rax
	jne	.L815
	leaq	__PRETTY_FUNCTION__.9024(%rip), %rcx
	movl	$5098, %edx
	leaq	.LC74(%rip), %rsi
	leaq	.LC192(%rip), %rdi
	call	__assert_fail@PLT
.L815:
	addl	$1, -168(%rbp)
.L814:
	movl	-168(%rbp), %eax
	cmpl	-156(%rbp), %eax
	jl	.L816
	leaq	-184(%rbp), %rdi
	movq	-128(%rbp), %rcx
	movl	-156(%rbp), %edx
	movq	-104(%rbp), %rsi
	movq	-200(%rbp), %rax
	movq	%rdi, %r9
	movq	%rcx, %r8
	movl	%edx, %ecx
	movl	$0, %edx
	movq	%rax, %rdi
	call	new_w_data
	movq	-104(%rbp), %rax
	movq	%rax, %rdi
	call	flecs_table_get_data
	movq	%rax, -88(%rbp)
	movl	$0, -168(%rbp)
	jmp	.L817
.L818:
	movl	-168(%rbp), %eax
	cltq
	leaq	0(,%rax,8), %rdx
	movq	-96(%rbp), %rax
	addq	%rdx, %rax
	movq	(%rax), %rax
	movq	%rax, -80(%rbp)
	movl	-184(%rbp), %edx
	movl	-168(%rbp), %eax
	leal	(%rdx,%rax), %edi
	movq	-88(%rbp), %rcx
	movq	-104(%rbp), %rdx
	movq	-80(%rbp), %rsi
	movq	-200(%rbp), %rax
	movl	$1, %r9d
	movl	%edi, %r8d
	movq	%rax, %rdi
	call	instantiate
	addl	$1, -168(%rbp)
.L817:
	movl	-168(%rbp), %eax
	cmpl	-156(%rbp), %eax
	jl	.L818
	addl	$1, -180(%rbp)
.L812:
	movl	-232(%rbp), %edx
	movl	-228(%rbp), %eax
	addl	%edx, %eax
	cmpl	%eax, -180(%rbp)
	jl	.L819
	jmp	.L793
.L821:
	nop
.L793:
	movq	-24(%rbp), %rax
	xorq	%fs:40, %rax
	je	.L820
	call	__stack_chk_fail@PLT
.L820:
	movq	-8(%rbp), %rbx
	leave
	.cfi_def_cfa 7, 8
	ret
	.cfi_endproc
.LFE94:
	.size	instantiate_children, .-instantiate_children
	.type	instantiate, @function
instantiate:
.LFB95:
	.cfi_startproc
	endbr64
	pushq	%rbp
	.cfi_def_cfa_offset 16
	.cfi_offset 6, -16
	movq	%rsp, %rbp
	.cfi_def_cfa_register 6
	subq	$112, %rsp
	movq	%rdi, -72(%rbp)
	movq	%rsi, -80(%rbp)
	movq	%rdx, -88(%rbp)
	movq	%rcx, -96(%rbp)
	movl	%r8d, -100(%rbp)
	movl	%r9d, -104(%rbp)
	movq	%fs:40, %rax
	movq	%rax, -8(%rbp)
	xorl	%eax, %eax
	movl	$276, %eax
	salq	$32, %rax
	movq	%rax, %rdx
	movq	-80(%rbp), %rax
	movl	%eax, %eax
	addq	%rax, %rdx
	movabsq	$-432345564227567616, %rax
	orq	%rax, %rdx
	movq	-72(%rbp), %rax
	movq	%rdx, %rsi
	movq	%rax, %rdi
	call	flecs_get_id_record
	movq	%rax, -64(%rbp)
	cmpq	$0, -64(%rbp)
	je	.L828
	movq	-64(%rbp), %rax
	movq	(%rax), %rax
	testq	%rax, %rax
	je	.L828
	movq	-64(%rbp), %rax
	movq	(%rax), %rdx
	leaq	-48(%rbp), %rax
	movq	%rdx, %rsi
	movq	%rax, %rdi
	call	ecs_map_iter
	jmp	.L825
.L826:
	movq	-56(%rbp), %rax
	movq	(%rax), %rdi
	movl	-104(%rbp), %r9d
	movl	-100(%rbp), %r8d
	movq	-96(%rbp), %rcx
	movq	-88(%rbp), %rdx
	movq	-80(%rbp), %rsi
	movq	-72(%rbp), %rax
	subq	$8, %rsp
	pushq	%rdi
	movq	%rax, %rdi
	call	instantiate_children
	addq	$16, %rsp
.L825:
	leaq	-48(%rbp), %rax
	movl	$0, %edx
	movl	$16, %esi
	movq	%rax, %rdi
	call	_ecs_map_next
	movq	%rax, -56(%rbp)
	cmpq	$0, -56(%rbp)
	jne	.L826
.L828:
	nop
	movq	-8(%rbp), %rax
	xorq	%fs:40, %rax
	je	.L827
	call	__stack_chk_fail@PLT
.L827:
	leave
	.cfi_def_cfa 7, 8
	ret
	.cfi_endproc
.LFE95:
	.size	instantiate, .-instantiate
	.section	.rodata
.LC193:
	.string	"component != 0"
	.text
	.type	override_from_base, @function
override_from_base:
.LFB96:
	.cfi_startproc
	endbr64
	pushq	%rbp
	.cfi_def_cfa_offset 16
	.cfi_offset 6, -16
	movq	%rsp, %rbp
	.cfi_def_cfa_register 6
	subq	$176, %rsp
	movq	%rdi, -136(%rbp)
	movq	%rsi, -144(%rbp)
	movq	%rdx, -152(%rbp)
	movq	%rcx, -160(%rbp)
	movq	%r8, -168(%rbp)
	movl	%r9d, -172(%rbp)
	movq	%fs:40, %rax
	movq	%rax, -8(%rbp)
	xorl	%eax, %eax
	cmpq	$0, -152(%rbp)
	setne	%al
	movzbl	%al, %eax
	movl	$0, %r9d
	movl	$5158, %r8d
	leaq	.LC74(%rip), %rcx
	leaq	.LC193(%rip), %rdx
	movl	$7, %esi
	movl	%eax, %edi
	movl	$0, %eax
	call	_ecs_assert
	cmpq	$0, -152(%rbp)
	jne	.L830
	leaq	__PRETTY_FUNCTION__.9075(%rip), %rcx
	movl	$5158, %edx
	leaq	.LC74(%rip), %rsi
	leaq	.LC193(%rip), %rdi
	call	__assert_fail@PLT
.L830:
	cmpq	$0, -152(%rbp)
	setne	%al
	movzbl	%al, %eax
	movl	$0, %r9d
	movl	$5161, %r8d
	leaq	.LC74(%rip), %rcx
	leaq	.LC193(%rip), %rdx
	movl	$7, %esi
	movl	%eax, %edi
	movl	$0, %eax
	call	_ecs_assert
	cmpq	$0, -152(%rbp)
	jne	.L831
	leaq	__PRETTY_FUNCTION__.9075(%rip), %rcx
	movl	$5161, %edx
	leaq	.LC74(%rip), %rsi
	leaq	.LC193(%rip), %rdi
	call	__assert_fail@PLT
.L831:
	movq	-144(%rbp), %rcx
	leaq	-48(%rbp), %rdx
	movq	-136(%rbp), %rax
	movq	%rcx, %rsi
	movq	%rax, %rdi
	call	flecs_get_info
	xorl	$1, %eax
	testb	%al, %al
	jne	.L832
	movq	-40(%rbp), %rax
	testq	%rax, %rax
	jne	.L833
.L832:
	movl	$0, %eax
	jmp	.L844
.L833:
	movl	-24(%rbp), %edx
	movq	-40(%rbp), %rsi
	movq	-152(%rbp), %rcx
	movq	-136(%rbp), %rax
	movq	%rax, %rdi
	call	get_component
	movq	%rax, -104(%rbp)
	cmpq	$0, -104(%rbp)
	je	.L835
	movq	-168(%rbp), %rax
	movzwl	8(%rax), %eax
	movw	%ax, -118(%rbp)
	movq	-168(%rbp), %rax
	movzwl	10(%rax), %eax
	movl	$16, %edx
	cmpw	$16, %ax
	cmovl	%edx, %eax
	movswl	%ax, %edx
	movq	-168(%rbp), %rax
	movzwl	8(%rax), %eax
	movswl	%ax, %ecx
	movq	-168(%rbp), %rax
	movq	(%rax), %rax
	movl	%ecx, %esi
	movq	%rax, %rdi
	call	_ecs_vector_first
	movq	%rax, -88(%rbp)
	movswl	-118(%rbp), %eax
	imull	-172(%rbp), %eax
	movslq	%eax, %rdx
	movq	-88(%rbp), %rax
	addq	%rdx, %rax
	movq	%rax, -112(%rbp)
	movq	-152(%rbp), %rdx
	movq	-136(%rbp), %rax
	movq	%rdx, %rsi
	movq	%rax, %rdi
	call	ecs_get_typeid
	movq	%rax, -152(%rbp)
	movq	-152(%rbp), %rdx
	movq	-136(%rbp), %rax
	movq	%rdx, %rsi
	movq	%rax, %rdi
	call	flecs_get_c_info
	movq	%rax, -80(%rbp)
	cmpq	$0, -80(%rbp)
	je	.L836
	movq	-80(%rbp), %rax
	movq	16(%rax), %rax
	jmp	.L837
.L836:
	movl	$0, %eax
.L837:
	movq	%rax, -72(%rbp)
	cmpq	$0, -72(%rbp)
	je	.L838
	movq	-160(%rbp), %rax
	movq	(%rax), %rax
	movl	$16, %edx
	movl	$8, %esi
	movq	%rax, %rdi
	call	_ecs_vector_first
	movq	%rax, -64(%rbp)
	movq	-80(%rbp), %rax
	movq	32(%rax), %rax
	movq	%rax, -56(%rbp)
	movl	$0, -116(%rbp)
	jmp	.L839
.L840:
	movswq	-118(%rbp), %rax
	movq	%rax, %rdi
	call	flecs_to_size_t
	movq	%rax, %rcx
	movl	-172(%rbp), %eax
	cltq
	leaq	0(,%rax,8), %rdx
	movq	-64(%rbp), %rax
	leaq	(%rdx,%rax), %rdi
	movq	-104(%rbp), %r9
	movq	-112(%rbp), %r8
	leaq	-144(%rbp), %rdx
	movq	-152(%rbp), %rsi
	movq	-136(%rbp), %rax
	subq	$8, %rsp
	pushq	-56(%rbp)
	pushq	$1
	pushq	%rcx
	movq	-72(%rbp), %r10
	movq	%rdx, %rcx
	movq	%rdi, %rdx
	movq	%rax, %rdi
	call	*%r10
	addq	$32, %rsp
	movswq	-118(%rbp), %rdx
	movq	-112(%rbp), %rax
	addq	%rdx, %rax
	movq	%rax, -112(%rbp)
	addl	$1, -116(%rbp)
.L839:
	movl	-116(%rbp), %eax
	cmpl	16(%rbp), %eax
	jl	.L840
	jmp	.L841
.L838:
	movl	$0, -116(%rbp)
	jmp	.L842
.L843:
	movswq	-118(%rbp), %rdx
	movq	-104(%rbp), %rcx
	movq	-112(%rbp), %rax
	movq	%rcx, %rsi
	movq	%rax, %rdi
	call	memcpy@PLT
	movswq	-118(%rbp), %rdx
	movq	-112(%rbp), %rax
	addq	%rdx, %rax
	movq	%rax, -112(%rbp)
	addl	$1, -116(%rbp)
.L842:
	movl	-116(%rbp), %eax
	cmpl	16(%rbp), %eax
	jl	.L843
.L841:
	movl	$1, %eax
	jmp	.L844
.L835:
	movq	-40(%rbp), %rax
	movq	8(%rax), %rax
	movq	%rax, -96(%rbp)
	movl	-172(%rbp), %r9d
	movq	-168(%rbp), %r8
	movq	-160(%rbp), %rcx
	movq	-96(%rbp), %rdx
	movq	-152(%rbp), %rsi
	movq	-136(%rbp), %rax
	subq	$8, %rsp
	movl	16(%rbp), %edi
	pushq	%rdi
	movq	%rax, %rdi
	call	override_component
	addq	$16, %rsp
.L844:
	movq	-8(%rbp), %rdi
	xorq	%fs:40, %rdi
	je	.L845
	call	__stack_chk_fail@PLT
.L845:
	leave
	.cfi_def_cfa 7, 8
	ret
	.cfi_endproc
.LFE96:
	.size	override_from_base, .-override_from_base
	.type	override_component, @function
override_component:
.LFB97:
	.cfi_startproc
	endbr64
	pushq	%rbp
	.cfi_def_cfa_offset 16
	.cfi_offset 6, -16
	movq	%rsp, %rbp
	.cfi_def_cfa_register 6
	subq	$80, %rsp
	movq	%rdi, -40(%rbp)
	movq	%rsi, -48(%rbp)
	movq	%rdx, -56(%rbp)
	movq	%rcx, -64(%rbp)
	movq	%r8, -72(%rbp)
	movl	%r9d, -76(%rbp)
	movq	-56(%rbp), %rax
	movl	$16, %edx
	movl	$8, %esi
	movq	%rax, %rdi
	call	_ecs_vector_first
	movq	%rax, -16(%rbp)
	movq	-56(%rbp), %rax
	movq	%rax, %rdi
	call	ecs_vector_count
	movl	%eax, -20(%rbp)
	movl	-20(%rbp), %eax
	subl	$1, %eax
	movl	%eax, -24(%rbp)
.L851:
	movl	-24(%rbp), %eax
	cltq
	leaq	0(,%rax,8), %rdx
	movq	-16(%rbp), %rax
	addq	%rdx, %rax
	movq	(%rax), %rax
	movq	%rax, -8(%rbp)
	movabsq	$-72057594037927936, %rax
	andq	-8(%rbp), %rax
	testq	%rax, %rax
	je	.L852
	movabsq	$-72057594037927936, %rax
	andq	-8(%rbp), %rax
	movabsq	$-432345564227567616, %rdx
	cmpq	%rdx, %rax
	jne	.L849
	movq	-8(%rbp), %rax
	shrq	$32, %rax
	movl	%eax, %eax
	andl	$16777215, %eax
	movl	$277, %edx
	cmpq	%rdx, %rax
	jne	.L849
	movq	-8(%rbp), %rax
	movl	%eax, %edx
	movq	-40(%rbp), %rax
	movq	%rdx, %rsi
	movq	%rax, %rdi
	call	ecs_get_alive
	movq	%rax, %rdi
	movl	-76(%rbp), %r9d
	movq	-72(%rbp), %r8
	movq	-64(%rbp), %rcx
	movq	-48(%rbp), %rdx
	movq	-40(%rbp), %rax
	subq	$8, %rsp
	movl	16(%rbp), %esi
	pushq	%rsi
	movq	%rdi, %rsi
	movq	%rax, %rdi
	call	override_from_base
	addq	$16, %rsp
	testb	%al, %al
	je	.L849
	movl	$1, %eax
	jmp	.L850
.L849:
	subl	$1, -24(%rbp)
	cmpl	$0, -24(%rbp)
	jns	.L851
	jmp	.L848
.L852:
	nop
.L848:
	movl	$0, %eax
.L850:
	leave
	.cfi_def_cfa 7, 8
	ret
	.cfi_endproc
.LFE97:
	.size	override_component, .-override_component
	.section	.rodata
.LC194:
	.string	"component_count != 0"
.LC195:
	.string	"component_info != NULL"
.LC196:
	.string	"component_info != ((void *)0)"
.LC197:
	.string	"base != 0"
.LC198:
	.string	"data->columns != NULL"
.LC199:
	.string	"data->columns != ((void *)0)"
	.text
	.type	components_override, @function
components_override:
.LFB98:
	.cfi_startproc
	endbr64
	pushq	%rbp
	.cfi_def_cfa_offset 16
	.cfi_offset 6, -16
	movq	%rsp, %rbp
	.cfi_def_cfa_register 6
	subq	$144, %rsp
	movq	%rdi, -104(%rbp)
	movq	%rsi, -112(%rbp)
	movq	%rdx, -120(%rbp)
	movl	%ecx, -124(%rbp)
	movl	%r8d, -128(%rbp)
	movq	%r9, -136(%rbp)
	movl	24(%rbp), %eax
	movb	%al, -140(%rbp)
	movq	%fs:40, %rax
	movq	%rax, -8(%rbp)
	xorl	%eax, %eax
	cmpq	$0, -120(%rbp)
	setne	%al
	movzbl	%al, %eax
	movl	$0, %r9d
	movl	$5251, %r8d
	leaq	.LC74(%rip), %rcx
	leaq	.LC122(%rip), %rdx
	movl	$7, %esi
	movl	%eax, %edi
	movl	$0, %eax
	call	_ecs_assert
	cmpq	$0, -120(%rbp)
	jne	.L854
	leaq	__PRETTY_FUNCTION__.9118(%rip), %rcx
	movl	$5251, %edx
	leaq	.LC74(%rip), %rsi
	leaq	.LC123(%rip), %rdi
	call	__assert_fail@PLT
.L854:
	cmpl	$0, 16(%rbp)
	setne	%al
	movzbl	%al, %eax
	movl	$0, %r9d
	movl	$5252, %r8d
	leaq	.LC74(%rip), %rcx
	leaq	.LC194(%rip), %rdx
	movl	$7, %esi
	movl	%eax, %edi
	movl	$0, %eax
	call	_ecs_assert
	cmpl	$0, 16(%rbp)
	jne	.L855
	leaq	__PRETTY_FUNCTION__.9118(%rip), %rcx
	movl	$5252, %edx
	leaq	.LC74(%rip), %rsi
	leaq	.LC194(%rip), %rdi
	call	__assert_fail@PLT
.L855:
	cmpq	$0, -136(%rbp)
	setne	%al
	movzbl	%al, %eax
	movl	$0, %r9d
	movl	$5253, %r8d
	leaq	.LC74(%rip), %rcx
	leaq	.LC195(%rip), %rdx
	movl	$7, %esi
	movl	%eax, %edi
	movl	$0, %eax
	call	_ecs_assert
	cmpq	$0, -136(%rbp)
	jne	.L856
	leaq	__PRETTY_FUNCTION__.9118(%rip), %rcx
	movl	$5253, %edx
	leaq	.LC74(%rip), %rsi
	leaq	.LC196(%rip), %rdi
	call	__assert_fail@PLT
.L856:
	movq	-112(%rbp), %rax
	movq	%rax, -72(%rbp)
	movq	-120(%rbp), %rax
	movq	16(%rax), %rax
	movq	%rax, -64(%rbp)
	movq	-112(%rbp), %rax
	movq	8(%rax), %rax
	movq	%rax, -56(%rbp)
	movq	-112(%rbp), %rax
	movl	20(%rax), %eax
	movl	%eax, -88(%rbp)
	movl	$0, -92(%rbp)
	jmp	.L857
.L867:
	movl	-92(%rbp), %eax
	movslq	%eax, %rdx
	movq	%rdx, %rax
	addq	%rax, %rax
	addq	%rdx, %rax
	salq	$3, %rax
	movq	%rax, %rdx
	movq	-136(%rbp), %rax
	addq	%rdx, %rax
	movq	(%rax), %rax
	movq	%rax, -80(%rbp)
	movq	-80(%rbp), %rax
	cmpq	$255, %rax
	jbe	.L858
	movq	-80(%rbp), %rax
	movabsq	$-72057594037927936, %rdx
	andq	%rax, %rdx
	movabsq	$-432345564227567616, %rax
	cmpq	%rax, %rdx
	jne	.L858
	movq	-80(%rbp), %rax
	shrq	$32, %rax
	movl	%eax, %eax
	andl	$16777215, %eax
	movl	$277, %edx
	cmpq	%rdx, %rax
	jne	.L858
	movq	-80(%rbp), %rax
	movl	%eax, %eax
	movq	%rax, -48(%rbp)
	cmpq	$0, -48(%rbp)
	setne	%al
	movzbl	%al, %eax
	movl	$0, %r9d
	movl	$5269, %r8d
	leaq	.LC74(%rip), %rcx
	leaq	.LC197(%rip), %rdx
	movl	$2, %esi
	movl	%eax, %edi
	movl	$0, %eax
	call	_ecs_assert
	cmpq	$0, -48(%rbp)
	jne	.L859
	leaq	__PRETTY_FUNCTION__.9118(%rip), %rcx
	movl	$5269, %edx
	leaq	.LC74(%rip), %rsi
	leaq	.LC197(%rip), %rdi
	call	__assert_fail@PLT
.L859:
